(dp1
I0
(lp2
(F476.74263839811545
F211.13015312131921
tp3
a(F492.1212952799122
F142.54171240395169
tp4
a(F512.26559865092747
F257.95362563237774
tp5
a(F657.2037037037037
F233.42438271604939
tp6
a(F592.59407216494844
F262.05670103092785
tp7
a(F243.33861671469739
F286.39913544668588
tp8
asI2050
(lp9
(F-1
F0
tp10
a(F457.8201284796574
F527.10599571734474
tp11
a(F-1
F20
tp12
a(F-1
F30
tp13
a(F-1
F40
tp14
a(F398
F570
tp15
asI4100
(lp16
(F-1
F0
tp17
a(F-1
F10
tp18
a(F1.1135033314652674
F26.245641073541378
tp19
a(F689.56603773584902
F752.64150943396237
tp20
a(F573.09226932668332
F815.29925187032416
tp21
a(F-3.0918576402946201
F37.870402461737854
tp22
asI1550
(lp23
(F826.08333333333337
F640.84420289855075
tp24
a(F715.537691401649
F785.04888103651354
tp25
a(F-0.94943820224716546
F6.739325842696644
tp26
a(F-1
F30
tp27
a(F507.07176196032674
F835.94457409568258
tp28
a(F254.45774647887325
F265.52957746478876
tp29
asI3600
(lp30
(F-1
F0
tp31
a(F797.43785310734461
F221.39689265536725
tp32
a(F789.35603112840454
F278.91245136186774
tp33
a(F555
F543
tp34
a(F-2.5036968576710024
F59.093345656192241
tp35
a(F539.16085136078163
F456.34368457780874
tp36
asI1050
(lp37
(F778.99838536060281
F640.14262648008616
tp38
a(F538.93709327548811
F218.0238611713666
tp39
a(F680.13207547169793
F286.03773584905662
tp40
a(F709.0795494307323
F213.3036228568352
tp41
a(F582.40674846625768
F295.74294478527605
tp42
a(F812.8024390243902
F693.82195121951224
tp43
asI3100
(lp44
(F688.96065989847716
F797.42131979695432
tp45
a(F670.35888888888894
F747.9755555555555
tp46
a(F585.72992700729924
F588.23357664233572
tp47
a(F474.97550776583034
F701.18219832735963
tp48
a(F625
F163
tp49
a(F743.25723830734978
F273.74832962138089
tp50
asI550
(lp51
(F681.74226804123714
F252.87972508591065
tp52
a(F563.75727590221186
F738.61990686845172
tp53
a(F516.70029455080999
F284.80927835051546
tp54
a(F504.29583333333335
F215.92916666666667
tp55
a(F262.81977401129944
F700.87853107344631
tp56
a(F873.06741573033707
F451.94756554307116
tp57
asI2600
(lp58
(F1.3039914468995448
F5.1229508196721554
tp59
a(F-2.7566063977747035
F48.327538247566054
tp60
a(F-1
F20
tp61
a(F-1
F30
tp62
a(F530.51339829476251
F257.11510353227771
tp63
a(F761
F710
tp64
asI50
(lp65
(F-1
F0
tp66
a(F775.66720955483174
F578.62052117263841
tp67
a(F-1
F20
tp68
a(F643.99801324503312
F391.88145695364238
tp69
a(F597.25873731679815
F265.51803833145436
tp70
a(F-1
F50
tp71
asI2100
(lp72
(F826.976501305483
F640.26631853785898
tp73
a(F404.57684529828111
F647.88220424671385
tp74
a(F1.2009646302250303
F12.519292604501629
tp75
a(F-1
F30
tp76
a(F830.83254716981128
F466.71462264150944
tp77
a(F410
F560
tp78
asI4150
(lp79
(F-1
F0
tp80
a(F-1
F10
tp81
a(F-5.2788243132740718
F75.939504527696158
tp82
a(F698.05660377358481
F745.09433962264143
tp83
a(F237.74720496894409
F326.70372670807456
tp84
a(F-1
F50
tp85
asI1600
(lp86
(F826.38052568697731
F639.76762246117084
tp87
a(F766.43333333333328
F694.15897435897432
tp88
a(F-0.2753934191702001
F15.252503576537947
tp89
a(F-1
F30
tp90
a(F287.12080536912754
F752.21252796420583
tp91
a(F250.76148409893992
F237.23674911660777
tp92
asI3650
(lp93
(F633.23476533192547
F589.07270681079274
tp94
a(F603.87421383647802
F358.06918238993711
tp95
a(F743.86589378438123
F240.00236491697081
tp96
a(F706.54716981132071
F594.15094339622635
tp97
a(F614.09433962264143
F505.09433962264154
tp98
a(F677.30188679245282
F268.8679245283019
tp99
asI1100
(lp100
(F748.8825983313468
F735.28545887961855
tp101
a(F836.91248606466002
F618.50891861761431
tp102
a(F661.26415094339609
F795.47169811320737
tp103
a(F773.82492799623822
F642.39205313583739
tp104
a(F193.21822541966426
F393.92326139088726
tp105
a(F466.32750582750583
F821.39044289044284
tp106
asI3150
(lp107
(F736.27056277056272
F778.47186147186153
tp108
a(F688.85281385281382
F745.60064935064941
tp109
a(F635.22980910425849
F805.87151248164469
tp110
a(F634.9860759493672
F565.72911392405058
tp111
a(F826
F325
tp112
a(F763.89143730886849
F188.37155963302757
tp113
asI600
(lp114
(F645.04085155350981
F483.07767548906787
tp115
a(F628.61989795918362
F853.56632653061229
tp116
a(F660.18115942028987
F283.32246376811594
tp117
a(F763.59090909090912
F282.97326203208559
tp118
a(F530.78260869565213
F215.46035805626599
tp119
a(F708.08143607705779
F381.33012259194396
tp120
asI2650
(lp121
(F-1
F0
tp122
a(F-1
F10
tp123
a(F771
F612
tp124
a(F738
F632
tp125
a(F537.39485458612978
F295.28187919463085
tp126
a(F761
F709
tp127
asI100
(lp128
(F406.28663793103448
F168.88469827586206
tp129
a(F736.94907975460126
F733.95030674846623
tp130
a(F355.9628647214854
F203.63262599469496
tp131
a(F-1
F30
tp132
a(F-1
F40
tp133
a(F346.76010101010098
F157.21464646464648
tp134
asI2150
(lp135
(F826.9611032531825
F639.96251768033949
tp136
a(F536.88442822384434
F243.03771289537713
tp137
a(F-0.96121212121215649
F11.630909090909086
tp138
a(F-1
F30
tp139
a(F642.74429223744289
F504.62100456621005
tp140
a(F332
F450
tp141
asI4200
(lp142
(F-0.66218447832534366
F71.475518777387492
tp143
a(F679.99833147942161
F692.39432703003342
tp144
a(F-1
F20
tp145
a(F698.11261261261257
F749.38438438438436
tp146
a(F321.59831460674155
F758.24157303370782
tp147
a(F-1
F50
tp148
asI1650
(lp149
(F827.0672955974843
F639.9666666666667
tp150
a(F753.36054421768711
F235.29931972789115
tp151
a(F0.23927213470938113
F8.1306355241716801
tp152
a(F-1
F30
tp153
a(F208.42004634994206
F341.88586326767091
tp154
a(F239.16159052453469
F256.15143824027075
tp155
asI3700
(lp156
(F635.52201622247969
F544.40498261877178
tp157
a(F325.70549242424244
F227.84469696969697
tp158
a(F-1
F20
tp159
a(F729.87446197991392
F612.29626972740311
tp160
a(F690.36590038314171
F553.16028097062576
tp161
a(F-1
F50
tp162
asI1150
(lp163
(F739.56603773584879
F771.69811320754718
tp164
a(F744.2830188679244
F719.43396226415086
tp165
a(F638.62264150943383
F522.83018867924534
tp166
a(F781.41376057254399
F643.0868900455431
tp167
a(F736.33253012048192
F440.56506024096387
tp168
a(F224.17651888341544
F328.52791461412153
tp169
asI3200
(lp170
(F814.84039548022611
F671.80084745762713
tp171
a(F806
F706
tp172
a(F760.09922680412376
F763.62757731958766
tp173
a(F707.97598870056481
F373.07203389830511
tp174
a(F807
F600
tp175
a(F813.19475847893113
F240.77646454265164
tp176
asI650
(lp177
(F769.52002355712602
F441.53180212014132
tp178
a(F667.02647975077878
F830.39927310488054
tp179
a(F687.69530284301607
F520.99938195302843
tp180
a(F692.60139860139861
F375.42540792540791
tp181
a(F548.40628328008518
F213.13578274760383
tp182
a(F691.11460446247463
F601.46146044624743
tp183
asI2700
(lp184
(F-1
F0
tp185
a(F-3.8290083410565785
F11.204819277108413
tp186
a(F-1
F20
tp187
a(F-1
F30
tp188
a(F750.50655737704915
F313.12622950819673
tp189
a(F761.08783783783781
F707.06981981981983
tp190
asI150
(lp191
(F430.35294117647061
F170.1447963800905
tp192
a(F503.81680440771351
F424.63360881542701
tp193
a(F-1
F20
tp194
a(F800.89636363636362
F446.11818181818182
tp195
a(F856.79584352078234
F535.03178484107582
tp196
a(F-1
F50
tp197
asI2200
(lp198
(F823.54941482444735
F636.39986996098833
tp199
a(F838.79988465974623
F583.72837370242212
tp200
a(F-3.675018155410271
F69.068627450980443
tp201
a(F-1
F30
tp202
a(F336.75720620842571
F734.76164079822615
tp203
a(F829
F350
tp204
asI4250
(lp205
(F-1.6115691809059172
F28.65700713223589
tp206
a(F677.3826879271071
F717.2437357630979
tp207
a(F2.5134637782437039
F59.869065921267179
tp208
a(F698.05660377358481
F769.62264150943395
tp209
a(F632.42629815745397
F844.84505862646563
tp210
a(F-1
F50
tp211
asI1700
(lp212
(F826.69883720930227
F640.31046511627903
tp213
a(F350.43607800650057
F235.09046587215602
tp214
a(F-3.2315848214285552
F15.393973214285666
tp215
a(F-1
F30
tp216
a(F425.60443037974682
F163.33333333333334
tp217
a(F279.17490494296578
F247.80608365019012
tp218
asI3750
(lp219
(F693.51968911917095
F640.14974093264243
tp220
a(F813.13739669421489
F329.19524793388427
tp221
a(F604.17804878048776
F246.59105691056911
tp222
a(F690.90706605222738
F784.22657450076804
tp223
a(F632.31298701298704
F624.27532467532467
tp224
a(F191.27137546468401
F461.83457249070631
tp225
asI2162
(lp226
NaNaNaNaNaNasI1200
(lp227
(F779.18867924528297
F721.69811320754707
tp228
a(F672.58490566037722
F666.60377358490553
tp229
a(F715.83486904302197
F632.59270182820467
tp230
a(F1.0438652595672657
F21.259647159151449
tp231
a(F-1
F40
tp232
a(F201.84069981583795
F362.20349907918967
tp233
asI3250
(lp234
(F823.0390625
F655.08370535714289
tp235
a(F723.87471526195895
F665.33826879271066
tp236
a(F663.33979763912305
F543.95699831365937
tp237
a(F572.72950819672133
F580.3271236959763
tp238
a(F801
F600
tp239
a(F800
F257
tp240
asI700
(lp241
(F-0.81012747079967085
F9.0086477987422313
tp242
a(F866.54608788853159
F503.63826366559488
tp243
a(F694.25588599752166
F631.17657992565057
tp244
a(F666.77127659574467
F509.90248226950354
tp245
a(F-1
F40
tp246
a(F750.77079646017694
F635.65929203539827
tp247
asI2750
(lp248
(F-1
F0
tp249
a(F702.36322869955154
F782.817264573991
tp250
a(F-1
F20
tp251
a(F-1
F30
tp252
a(F879.25469483568077
F507.26056338028167
tp253
a(F705.13216266173754
F687.21349353049902
tp254
asI200
(lp255
(F436.29824561403507
F174.17418546365914
tp256
a(F530.14636542239691
F170.23084479371317
tp257
a(F375.91011984021304
F178.50133155792278
tp258
a(F729.18923076923079
F350.61384615384617
tp259
a(F512.5153256704981
F825.59323116219673
tp260
a(F555.03620955315876
F115.25346687211093
tp261
asI2250
(lp262
(F0.54416961130743857
F59.85865724381631
tp263
a(F-1.1394072447859571
F74.409989023051594
tp264
a(F-1
F20
tp265
a(F-1
F30
tp266
a(F604.9966170500677
F828.46887686062246
tp267
a(F823
F355
tp268
asI4300
(lp269
(F-2.3988307866617333
F23.692298613624644
tp270
a(F697.11320754716974
F797.73584905660368
tp271
a(F-4.4605027465964895
F69.063171721996923
tp272
a(F704.56939267075734
F683.50364168148201
tp273
a(F619.75471698113199
F852.2641509433962
tp274
a(F-1
F50
tp275
asI1750
(lp276
(F826.33855421686746
F640.39638554216867
tp277
a(F269.60509885535902
F267.01612903225805
tp278
a(F-0.02295552367286291
F13.223098995695864
tp279
a(F-1
F30
tp280
a(F550.9925170068027
F151.55850340136055
tp281
a(F405.69379844961242
F151.47868217054264
tp282
asI3800
(lp283
(F817.23777777777775
F572.16222222222223
tp284
a(F569.09436274509801
F696.47794117647061
tp285
a(F774.87605396290053
F228.20826306913997
tp286
a(F721.0731584258325
F753.70988900100906
tp287
a(F642.3881909547739
F795.5402010050251
tp288
a(F615.54355716878399
F841.80127041742287
tp289
asI1250
(lp290
(F833.90566037735846
F662.26415094339609
tp291
a(F671.64150943396226
F722.2641509433962
tp292
a(F727.24025805614974
F687.99092264799333
tp293
a(F779.66111462188917
F646.79442388131565
tp294
a(F733.2585768742058
F603.33354510800507
tp295
a(F526.77810650887579
F389.78205128205127
tp296
asI3300
(lp297
(F829.5791757049891
F668.2841648590022
tp298
a(F861.58306709265173
F487.7768903088392
tp299
a(F764.53612716763007
F257.34682080924853
tp300
a(F562.94043321299637
F562.12093862815891
tp301
a(F821
F605
tp302
a(F813
F235
tp303
asI750
(lp304
(F450.56786171574902
F707.42829705505767
tp305
a(F551.52683896620283
F826.50695825049706
tp306
a(F735.32219251336903
F636.21925133689842
tp307
a(F724.24175824175825
F503.30082417582418
tp308
a(F722.4953596287703
F412.03596287703016
tp309
a(F801.48493408662898
F543.74670433145013
tp310
asI2800
(lp311
(F-1
F0
tp312
a(F709.9666666666667
F786.66790123456792
tp313
a(F-1
F20
tp314
a(F-1
F30
tp315
a(F-1
F40
tp316
a(F572.65693430656938
F718.93795620437959
tp317
asI250
(lp318
(F415.64350797266513
F363.15034168564921
tp319
a(F665.55363128491615
F178.34022346368715
tp320
a(F361.10766961651916
F295.05457227138641
tp321
a(F640.1497890295359
F488.6926863572433
tp322
a(F639.963768115942
F387.72608695652173
tp323
a(F721.85687732342012
F171.53159851301115
tp324
asI2300
(lp325
(F-5.1692482915717619
F82.944646924829158
tp326
a(F2.3999999999999773
F65.576724137931024
tp327
a(F-1
F20
tp328
a(F-1
F30
tp329
a(F294.08962264150944
F674.61674528301887
tp330
a(F820
F354
tp331
asI4350
(lp332
(F1.8245019781513747
F37.051149340745383
tp333
a(F785.21871657754014
F693.72566844919788
tp334
a(F2.0193095142513826
F20.513568847852298
tp335
a(F768.89909550671075
F363.92849153861113
tp336
a(F629.18867924528297
F845.66037735849045
tp337
a(F-1
F50
tp338
asI1800
(lp339
(F826.22441860465119
F640.53837209302321
tp340
a(F223.33299389002036
F593.28105906313647
tp341
a(F-3.0618046971569584
F12.834981458590846
tp342
a(F-1
F30
tp343
a(F550.48188153310105
F158.57804878048779
tp344
a(F772.68610129564195
F448.02885747938751
tp345
asI3850
(lp346
(F-1
F0
tp347
a(F543.27419354838707
F820.52258064516127
tp348
a(F705.39674681753888
F676.50707213578505
tp349
a(F688.18856767411296
F743.14388961892246
tp350
a(F433.45920889987639
F610.71013597033379
tp351
a(F-1
F50
tp352
asI1300
(lp353
(F831.07547169811312
F649.99999999999989
tp354
a(F735.79245283018861
F733.58490566037722
tp355
a(F754.95579846681983
F595.7130449371499
tp356
a(F780.95245971049781
F642.81667945698484
tp357
a(F722.72384428223847
F795.67518248175179
tp358
a(F191.97151898734177
F323.08227848101268
tp359
asI3350
(lp360
(F828.91666666666663
F671.99777777777774
tp361
a(F543.26071784646058
F615.0104685942174
tp362
a(F803
F250
tp363
a(F563.08964646464642
F568.63510101010115
tp364
a(F794
F614
tp365
a(F804
F214
tp366
asI800
(lp367
(F683.38325991189424
F265.46035242290748
tp368
a(F465.56480446927372
F846.79497206703911
tp369
a(F773.52450980392155
F584.33725490196082
tp370
a(F622.82515337423308
F436.83895705521473
tp371
a(F301.56594724220622
F228.22661870503597
tp372
a(F730.51999999999998
F578.18461538461543
tp373
asI2850
(lp374
(F-0.39225589225588919
F11.811447811447806
tp375
a(F561.77494692144376
F693.8110403397028
tp376
a(F0.24184233323705939
F31.958850707479087
tp377
a(F-3.3915929203540145
F49.084070796460196
tp378
a(F572
F840
tp379
a(F609
F807
tp380
asI300
(lp381
(F519.50349243306175
F490.27182770663563
tp382
a(F749.48234683281407
F455.13343717549327
tp383
a(F669.6268011527377
F243.72910662824208
tp384
a(F493.97571428571428
F276.80857142857144
tp385
a(F679.61382113821139
F166.36449864498644
tp386
a(F738.61546840958601
F169.94226579520696
tp387
asI2350
(lp388
(F3.6349527665316828
F44.65114709851548
tp389
a(F-0.87302725968436334
F34.059540889526488
tp390
a(F-1
F20
tp391
a(F-1
F30
tp392
a(F277.58011049723757
F679.16712707182319
tp393
a(F843
F386
tp394
asI4400
(lp395
(F-1
F0
tp396
a(F890.5094339622641
F430.75471698113211
tp397
a(F-3.1054484076099698
F34.432405202418067
tp398
a(F568.46626818378252
F169.79459887656645
tp399
a(F684.15603033666287
F795.28084535701078
tp400
a(F-1
F50
tp401
asI1850
(lp402
(F826.2488038277512
F640.26196172248808
tp403
a(F277.9889529298751
F274.21373679154658
tp404
a(F-2.0726495726495386
F15.064102564102541
tp405
a(F-1
F30
tp406
a(F557.81670533642693
F152.39327146171695
tp407
a(F712.19047619047615
F413.8154761904762
tp408
asI3900
(lp409
(F757.46226415094338
F724.38259958071274
tp410
a(F511.34253578732108
F274.56441717791409
tp411
a(F795.31591448931113
F693.86342042755348
tp412
a(F684.93647234678622
F743.12630792227208
tp413
a(F582.97121034077554
F319.92773207990598
tp414
a(F779.95724258289704
F761.89790575916231
tp415
asI1350
(lp416
(F834.84905660377353
F645.28301886792451
tp417
a(F699.94339622641508
F705.28301886792451
tp418
a(F-1
F14.339622641509433
tp419
a(F-1
F30
tp420
a(F796.95124282982795
F762.55544933078397
tp421
a(F399.16287015945329
F462.75968109339408
tp422
asI3400
(lp423
(F826.65421115065249
F671.58896797153022
tp424
a(F499.3411829134721
F559.67196056955095
tp425
a(F-1
F20
tp426
a(F576.13406940063078
F563.12145110410097
tp427
a(F801.29806451612899
F607.19612903225811
tp428
a(F-1
F50
tp429
asI850
(lp430
(F657.70544835414307
F648.22304199772987
tp431
a(F297.93410041841003
F724.18096234309621
tp432
a(F-1
F20
tp433
a(F609.83012512030803
F564.56448508180938
tp434
a(F738.114371257485
F182.23652694610777
tp435
a(F-1
F50
tp436
asI2900
(lp437
(F806.34724689165182
F623.04174067495569
tp438
a(F630.60092687950566
F333.8964984552008
tp439
a(F636.91630901287556
F466.74463519313304
tp440
a(F647.31381011097415
F555.59371146732428
tp441
a(F612
F841
tp442
a(F862.46866096866097
F636.46723646723649
tp443
asI350
(lp444
(F495.98842592592592
F343.87384259259261
tp445
a(F705.65677966101691
F313.21927966101697
tp446
a(F688.86275862068965
F215.66827586206895
tp447
a(F490.44876660341555
F267.365275142315
tp448
a(F668.77836411609496
F150.41688654353561
tp449
a(F731.83465346534649
F169.94356435643564
tp450
asI2400
(lp451
(F4.3836689038031409
F11.085011185682333
tp452
a(F1.1691343963553891
F41.776195899772233
tp453
a(F-1
F20
tp454
a(F-1
F30
tp455
a(F276.15371024734981
F678.05948174322737
tp456
a(F853
F443
tp457
asI4450
(lp458
(F715.61034877072609
F693.37108279561107
tp459
a(F667.86469679220352
F177.66280750729038
tp460
a(F796.92977228366954
F715.69830839297333
tp461
a(F284.84905660377359
F558.30188679245271
tp462
a(F693.83052872937856
F784.23864718341326
tp463
a(F737.67924528301876
F738.67924528301876
tp464
asI1900
(lp465
(F826.73500611995109
F639.7643818849449
tp466
a(F853.4989047097481
F566.23055859802844
tp467
a(F3.4628140703517829
F4.0552763819094935
tp468
a(F-1
F30
tp469
a(F565.11576971214015
F216.08948685857322
tp470
a(F523.05250403877221
F353.69870759289176
tp471
asI4498
(lp472
(F-2.1938436365494454
F67.549342946259685
tp473
a(F480.84420697412821
F147.47862767154106
tp474
a(F786.51841509433973
F725.54047798742158
tp475
a(F689.56603773584902
F423.3962264150943
tp476
a(F-1
F40
tp477
a(F-1
F50
tp478
asI3950
(lp479
(F-1
F0
tp480
a(F633.52215508559914
F479.93504531722056
tp481
a(F-1
F20
tp482
a(F686.73584905660368
F738.49056603773579
tp483
a(F727.46688741721857
F654.9701986754967
tp484
a(F-1
F50
tp485
asI1400
(lp486
(F829.1375065479308
F641.16631744368783
tp487
a(F516
F323
tp488
a(F-1
F20
tp489
a(F-1
F30
tp490
a(F803.6572904707233
F716.50229621125141
tp491
a(F403.1808905380334
F274.49257884972172
tp492
asI3450
(lp493
(F822.05934343434342
F666.81186868686871
tp494
a(F753.02524167561762
F239.7234156820623
tp495
a(F-1
F20
tp496
a(F576.70491803278674
F565.2267759562842
tp497
a(F799
F611
tp498
a(F-1
F50
tp499
asI2112
(lp500
NaNaNaNaNaNasI900
(lp501
(F667.88305084745764
F658.31242937853108
tp502
a(F726.80573248407643
F216.0859872611465
tp503
a(F725.37205882352941
F674.98235294117649
tp504
a(F722.58490566037722
F464.90566037735846
tp505
a(F781.03538050734312
F295.96995994659545
tp506
a(F742.78366762177654
F742.85243553008593
tp507
asI2950
(lp508
(F775.0889763779528
F662.23543307086629
tp509
a(F227.01187648456056
F671.36579572446556
tp510
a(F689.47510980966319
F715.66837481698394
tp511
a(F656.91551939924921
F325.84418022528155
tp512
a(F828
F690
tp513
a(F736.41571428571433
F210.45428571428579
tp514
asI400
(lp515
(F646.76184538653365
F180.48877805486285
tp516
a(F744.23471882640592
F261.09779951100245
tp517
a(F1.5636392708667017
F0.25582685904552704
tp518
a(F493.16620498614958
F273.44182825484762
tp519
a(F713.7560975609756
F155.97038327526133
tp520
a(F-1
F50
tp521
asI2450
(lp522
(F-1
F0
tp523
a(F-1
F10
tp524
a(F-1
F20
tp525
a(F-1
F30
tp526
a(F183.31096849474912
F522.68086347724625
tp527
a(F652
F590
tp528
asI1950
(lp529
(F829.12175525339921
F639.25278121137205
tp530
a(F761.77849462365589
F722.83655913978498
tp531
a(F-1.8995801259621885
F11.370538838348466
tp532
a(F-1
F30
tp533
a(F744.94206008583694
F347.20922746781116
tp534
a(F659.83498759305212
F579.53473945409428
tp535
asI4000
(lp536
(F-1
F0
tp537
a(F-1
F10
tp538
a(F-1.509713354971268
F64.922132658035366
tp539
a(F683.90566037735846
F741.32075471698101
tp540
a(F-1
F40
tp541
a(F-0.38825440939126565
F21.248608608173981
tp542
asI1450
(lp543
(F830.70286396181382
F643.75656324582337
tp544
a(F894
F406
tp545
a(F-1
F20
tp546
a(F-1
F30
tp547
a(F-1
F40
tp548
a(F279.71090909090907
F232.73272727272726
tp549
asI3500
(lp550
(F837.43390191897652
F627.27505330490408
tp551
a(F784.35284280936457
F220.64827201783723
tp552
a(F-1
F20
tp553
a(F578.02500000000009
F563.03749999999991
tp554
a(F620
F585
tp555
a(F2.0457943925233621
F27.817757009345769
tp556
asI950
(lp557
(F689.05064027939466
F625.04947613504078
tp558
a(F637.79210526315785
F429.38684210526316
tp559
a(F665.0377358490565
F565.28301886792451
tp560
a(F766.13106726199067
F334.12364971914167
tp561
a(F689.04112554112555
F324.0223665223665
tp562
a(F858.04648760330576
F619.25929752066111
tp563
asI3000
(lp564
(F755.11181434599155
F718.50843881856554
tp565
a(F342.03161843515539
F771.12700964630221
tp566
a(F850.05269922879177
F432.11568123393317
tp567
a(F570.24038461538476
F649.28245192307691
tp568
a(F649
F271
tp569
a(F191.8937984496124
F342.02403100775189
tp570
asI450
(lp571
(F695.04639175257728
F207.2033218785796
tp572
a(F609.84269005847955
F181.87543859649122
tp573
a(F762.36615186615188
F217.26576576576576
tp574
a(F493.08222811671089
F270.80106100795757
tp575
a(F658.99943246311011
F312.09704880817253
tp576
a(F767.02321428571429
F294.63214285714287
tp577
asI2500
(lp578
(F-1
F0
tp579
a(F-1
F10
tp580
a(F-1
F20
tp581
a(F-1
F30
tp582
a(F447.28515185601799
F250.82170978627673
tp583
a(F764
F708
tp584
asI2000
(lp585
(F823.82462686567169
F636.12686567164178
tp586
a(F675.48711063372718
F478.41299677765841
tp587
a(F764.52222222222224
F616.64567901234568
tp588
a(F727.04802259887003
F641.1624293785311
tp589
a(F669.39236545682104
F682.68648310387982
tp590
a(F434
F597
tp591
asI4050
(lp592
(F-1
F0
tp593
a(F832.6509635974304
F690.51070663811561
tp594
a(F-1.1211108821710241
F77.768919436022884
tp595
a(F691.45283018867917
F745.09433962264143
tp596
a(F814.41343669250648
F633.40826873385015
tp597
a(F-1
F50
tp598
asI2212
(lp599
NaNaNaNaNaNasI1500
(lp600
(F830.19588744588748
F643.43831168831173
tp601
a(F897
F442
tp602
a(F-1
F20
tp603
a(F-1
F30
tp604
a(F456.46144859813086
F638.85163551401865
tp605
a(F255.45202952029521
F230.51291512915128
tp606
asI3550
(lp607
(F715.73762376237619
F726.125
tp608
a(F785.15979381443299
F210.90058910161997
tp609
a(F812.66987740805598
F310.15849387040282
tp610
a(F-1
F30
tp611
a(F-0.73230974632838297
F46.907209612817098
tp612
a(F640
F398
tp613
asI1000
(lp614
(F686.55326876513323
F628.09806295399517
tp615
a(F548.32280867106499
F412.83741753063146
tp616
a(F626.35849056603774
F577.54716981132071
tp617
a(F778.31719142473264
F331.10175828027343
tp618
a(F685.00318471337584
F313.87420382165607
tp619
a(F852.844696969697
F626.0625
tp620
asI3050
(lp621
(F681.86432926829275
F804
tp622
a(F593.3479467258602
F811.47114317425087
tp623
a(F637.21570014144277
F757.77015558698724
tp624
a(F577.57985257985251
F665.97420147420144
tp625
a(F359
F772
tp626
a(F604.10619469026551
F133.47935103244833
tp627
asI500
(lp628
(F726.57931404072883
F224.45819935691318
tp629
a(F602.35025641025641
F462.72256410256409
tp630
a(F520.76479750778822
F315.97352024922117
tp631
a(F507.04388489208634
F222.64676258992804
tp632
a(F779.38474576271187
F649.0050847457627
tp633
a(F785.15292841648591
F203.27657266811281
tp634
asI2550
(lp635
(F-1
F0
tp636
a(F-1
F10
tp637
a(F-1
F20
tp638
a(F-1
F30
tp639
a(F526.15005793742762
F262.60081112398609
tp640
a(F763
F714
tp641
as.