(dp1
I0
(lp2
(F388.82608695652175
F199.83152173913044
tp3
a(F444.89450686641698
F169.09425717852685
tp4
a(F770.58472400513483
F591.18164313222076
tp5
a(F688.65901639344258
F241.06393442622951
tp6
a(F732.7675840978593
F426.66666666666669
tp7
a(F792.99083503054987
F405.22912423625257
tp8
asI2050
(lp9
(F-1
F0
tp10
a(F409.03814627994956
F227.79382093316519
tp11
a(F752.64988009592321
F366.70023980815347
tp12
a(F571
F415
tp13
a(F811.70960698689942
F479.62663755458516
tp14
a(F0.64794520547945922
F45.138356164383595
tp15
asI4100
(lp16
(F401.17133757961778
F252.01464968152868
tp17
a(F346.62215568862274
F198.54550898203593
tp18
a(F192.86770186335411
F346.6652173913044
tp19
a(F799
F382
tp20
a(F790
F571
tp21
a(F436.8517857142856
F258.30178571428564
tp22
asI1550
(lp23
(F-2.782919999602143
F56.251259181829425
tp24
a(F0.21621687180152094
F15.022087231586056
tp25
a(F298.03797468354429
F812.77974683544301
tp26
a(F779.00631393700826
F342.33837328801616
tp27
a(F259.15178448311264
F190.93863580067165
tp28
a(F452.35264493115045
F221.4118989808666
tp29
asI3600
(lp30
(F380.0078947368421
F216.42105263157896
tp31
a(F428.57116104868913
F245.28277153558054
tp32
a(F102.26324689966178
F577.19785794813981
tp33
a(F630.95641025641021
F236.62820512820508
tp34
a(F125.84720229555236
F347.01362984218076
tp35
a(F682.95792880258887
F779.87378640776706
tp36
asI1050
(lp37
(F-1
F0
tp38
a(F0.47410897646761896
F72.014585397000616
tp39
a(F318.31111111111113
F716.63968253968255
tp40
a(F450.0361781076067
F870.60946196660484
tp41
a(F720.2431578947369
F389.17789473684212
tp42
a(F459.95098638473354
F230.51814585194484
tp43
asI3100
(lp44
(F-1
F0
tp45
a(F0.34527687296417753
F41.093376764386562
tp46
a(F185.30898876404495
F766.48127340823976
tp47
a(F789.59060955518942
F362.663097199341
tp48
a(F290.88713318284425
F271.78103837471781
tp49
a(F250.97765793528504
F242.83127889060097
tp50
asI550
(lp51
(F-1
F0
tp52
a(F-1
F10
tp53
a(F-1
F20
tp54
a(F639.19282511210758
F820.59865470852014
tp55
a(F566.45148669796561
F846.77230046948353
tp56
a(F708.36885245901635
F357.37978142076503
tp57
asI2600
(lp58
(F-1
F0
tp59
a(F0.60577311263625688
F27.5904319741623
tp60
a(F486.27111716621255
F280.0517711171662
tp61
a(F184.8234859675037
F353.0347119645495
tp62
a(F479.75677603423679
F857.36875891583452
tp63
a(F-1
F50
tp64
asI2100
(lp65
(F-1
F0
tp66
a(F3.3632371392722575
F19.646173149309902
tp67
a(F683.72670375521557
F769.85605006954108
tp68
a(F545.18407310704958
F216.63185378590077
tp69
a(F369.47500000000002
F145.24000000000001
tp70
a(F-1
F50
tp71
asI4150
(lp72
(F-1
F0
tp73
a(F-1
F10
tp74
a(F565
F183
tp75
a(F777
F330
tp76
a(F739.90298507462694
F477.62139303482581
tp77
a(F-1.9974874371860096
F52.0464824120603
tp78
asI1600
(lp79
(F-1.47669333309085
F64.12140653700078
tp80
a(F-2.1745931649265913
F47.764603823800968
tp81
a(F325.20633397312861
F245.50959692898272
tp82
a(F763.05354755939447
F301.19702841943342
tp83
a(F168.06396626703895
F734.92758303399592
tp84
a(F454.90746419025095
F210.70867815707231
tp85
asI3650
(lp86
(F-1
F0
tp87
a(F419
F183
tp88
a(F-2.3949806949806884
F28.525482625482624
tp89
a(F159.02199762187865
F731.5760998810938
tp90
a(F605
F809
tp91
a(F737.45335820895525
F717.11753731343288
tp92
asI1100
(lp93
(F-1
F0
tp94
a(F3.0607098698338291
F75.713718505855013
tp95
a(F726.81425091352014
F459.37819732034103
tp96
a(F449.62014787430684
F873.5646950092422
tp97
a(F780.57727975270484
F368.09814528593506
tp98
a(F-1
F50
tp99
asI3150
(lp100
(F-1
F0
tp101
a(F-3.1237244897959044
F17.127551020408163
tp102
a(F634.37715269804812
F256.82835820895525
tp103
a(F462.69099378881987
F205.23757763975155
tp104
a(F722.89237057220703
F273.84059945504089
tp105
a(F133.49093655589127
F577.28851963746229
tp106
asI600
(lp107
(F-1
F0
tp108
a(F-1
F10
tp109
a(F-1
F20
tp110
a(F502.57432432432432
F666.52297297297298
tp111
a(F370.65523932729627
F484.21280724450196
tp112
a(F468.48873591989985
F278.58760951188987
tp113
asI2650
(lp114
(F-1
F0
tp115
a(F1.3267740011926321
F26.266249254621357
tp116
a(F289.64758620689656
F591.75793103448279
tp117
a(F677.34978540772534
F746.74749642346205
tp118
a(F770.05844155844159
F584.15643447461628
tp119
a(F-1
F50
tp120
asI100
(lp121
(F-1
F0
tp122
a(F-1
F10
tp123
a(F432.23476297968398
F252.94130925507901
tp124
a(F765.23730043541366
F346.69593613933239
tp125
a(F320.04388297872339
F402.07180851063828
tp126
a(F792.44155844155841
F501.62175324675326
tp127
asI2150
(lp128
(F-1
F0
tp129
a(F-0.79537480063794419
F18.12647527910687
tp130
a(F534
F857
tp131
a(F558.52059496567506
F185.3970251716247
tp132
a(F487.16396761133603
F847.75371120107957
tp133
a(F1.938829787233999
F33.352393617021221
tp134
asI4200
(lp135
(F1.598626716604258
F43.768414481897594
tp136
a(F-1
F10
tp137
a(F720.20842032011137
F308.82637439109249
tp138
a(F769
F317
tp139
a(F390.98674080410592
F334.75064157399493
tp140
a(F455.30780780780788
F224.2282282282282
tp141
asI1650
(lp142
(F1.0265642946863522
F10.026902788176528
tp143
a(F-0.44929086355068648
F24.939380340235743
tp144
a(F331.26052948255114
F236.19193742478942
tp145
a(F701.76133989803645
F261.73492211691524
tp146
a(F691.27614007787963
F763.86324758797775
tp147
a(F454.08348200265294
F218.67657059622115
tp148
asI3700
(lp149
(F380.25688816855751
F210.20178282009724
tp150
a(F467
F162
tp151
a(F359.95681818181816
F659.17613636363637
tp152
a(F168.80276243093931
F713.63038674033146
tp153
a(F171.89076576576576
F261.12274774774772
tp154
a(F807.69554848966618
F465.89268680445139
tp155
asI1150
(lp156
(F-1
F0
tp157
a(F1.8202129583119699
F19.929218866528743
tp158
a(F770.98607594936709
F489.94683544303797
tp159
a(F667.13907284768209
F790.50331125827813
tp160
a(F477.58299132841194
F853.59108525830027
tp161
a(F-1
F50
tp162
asI3200
(lp163
(F-1
F0
tp164
a(F-2.1341958396752716
F14.650684931506845
tp165
a(F715.21002386634837
F284.62291169451078
tp166
a(F542.21827057182702
F386.32426778242677
tp167
a(F676.91045958795564
F768.45087163232961
tp168
a(F694.26734693877552
F638.21292517006805
tp169
asI650
(lp170
(F-1
F0
tp171
a(F-1
F10
tp172
a(F-1
F20
tp173
a(F790.26010781671164
F631.28571428571433
tp174
a(F687.71570926143022
F739.6019929660024
tp175
a(F465.98194662480375
F279.70251177394033
tp176
asI2700
(lp177
(F-1
F0
tp178
a(F2.2253472222222399
F29.170138888888886
tp179
a(F599.68161434977583
F800.56165919282512
tp180
a(F392.34370257966617
F829.51517450682854
tp181
a(F573.22867298578194
F180.58412322274881
tp182
a(F-1
F50
tp183
asI150
(lp184
(F-1
F0
tp185
a(F-1
F10
tp186
a(F-1
F20
tp187
a(F512.83918918918914
F428.92297297297296
tp188
a(F595.36675126903549
F777.90736040609136
tp189
a(F794.53318077803203
F505.0503432494279
tp190
asI2200
(lp191
(F-1
F0
tp192
a(F0.44823753572563874
F25.063671006668784
tp193
a(F722.48765432098764
F656.81200897867564
tp194
a(F563.64834437086097
F251.36357615894039
tp195
a(F797.20387596899229
F568.21782945736436
tp196
a(F-1
F50
tp197
asI4250
(lp198
(F3.9056482670089849
F40.492297817714984
tp199
a(F3
F25
tp200
a(F761.53831118060998
F366.98631743549652
tp201
a(F768.73482849604227
F330.19920844327174
tp202
a(F433
F846
tp203
a(F460.68100000000004
F222.83999999999992
tp204
asI1700
(lp205
(F-1
F0
tp206
a(F-1
F10
tp207
a(F455.28303964757708
F172.36453744493392
tp208
a(F-1
F30
tp209
a(F712.67639057745635
F749.4782941622949
tp210
a(F-3.2503741518918332
F53.387594368822761
tp211
asI3750
(lp212
(F379.30246913580248
F214.43518518518519
tp213
a(F6.2419354838709751
F40.77258064516127
tp214
a(F-1
F20
tp215
a(F311
F832
tp216
a(F246.56785137318255
F797.29806138933759
tp217
a(F509.77055306427496
F339.56278026905829
tp218
asI1200
(lp219
(F-1.8396192830323015
F-5.0377156981938143
tp220
a(F-1.8396192830323015
F4.9622843018061857
tp221
a(F774.03781512605042
F358.4783913565426
tp222
a(F729.76694045174543
F720.34394250513344
tp223
a(F675.733142124035
F781.38382691752236
tp224
a(F-1
F50
tp225
asI3250
(lp226
(F-1
F0
tp227
a(F0.92642976124375309
F10.612159911160461
tp228
a(F782.93251533742341
F372.56288343558288
tp229
a(F771.93571428571431
F508.35714285714283
tp230
a(F802.7738944365193
F439.87375178316688
tp231
a(F620.60237659963423
F524.71755027422296
tp232
asI700
(lp233
(F-1
F0
tp234
a(F-1
F10
tp235
a(F1.5491659350307145
F27.341966637401242
tp236
a(F767.63905683192263
F680.10580411124545
tp237
a(F384.23745173745175
F151.1138996138996
tp238
a(F466.48802395209583
F284.75449101796409
tp239
asI2750
(lp240
(F-1
F0
tp241
a(F-3.0408988037503946
F30.398157129000964
tp242
a(F119.67040358744394
F578.7455156950673
tp243
a(F303.16040462427748
F800.09393063583821
tp244
a(F161.20234113712374
F728.58528428093643
tp245
a(F-1
F50
tp246
asI200
(lp247
(F-1
F0
tp248
a(F-1
F10
tp249
a(F1.1009519038076405
F17.207414829659342
tp250
a(F512.25561797752812
F421.54915730337081
tp251
a(F729.66772151898738
F359.54905063291142
tp252
a(F795.30724174653892
F508.25399361022363
tp253
asI2250
(lp254
(F-1
F0
tp255
a(F3.7321367521367392
F26.037094017094006
tp256
a(F471.95476772616138
F812.2053789731051
tp257
a(F614.65219842164595
F225.5022547914318
tp258
a(F338.6808972503618
F150.73010130246021
tp259
a(F-1
F50
tp260
asI4300
(lp261
(F2.7886866059818658
F23.479193758127394
tp262
a(F-1
F10
tp263
a(F617.26719003789935
F792.45722793719551
tp264
a(F676.93333333333328
F234.11805555555554
tp265
a(F750
F322
tp266
a(F459.96344647519572
F222.60966057441249
tp267
asI1750
(lp268
(F-1.078419365444347
F47.586063314274327
tp269
a(F-1.5785971802590097
F64.268170740750179
tp270
a(F759.13861386138615
F418.89603960396039
tp271
a(F485.13956487570266
F443.93230653492469
tp272
a(F776.00225362831611
F369.20549333707436
tp273
a(F446.71628843497217
F220.32095715478772
tp274
asI3800
(lp275
(F-1
F0
tp276
a(F470
F171
tp277
a(F275
F170
tp278
a(F370
F865
tp279
a(F785.31258941344777
F538.07224606580826
tp280
a(F3.9635514018691538
F15.253271028037489
tp281
asI1250
(lp282
(F-1
F0
tp283
a(F-1
F10
tp284
a(F679.40594059405942
F655.45297029702965
tp285
a(F704.50967741935483
F729.04032258064512
tp286
a(F684.129334954358
F771.3083955211348
tp287
a(F-1
F50
tp288
asI3300
(lp289
(F383.98037889039244
F210.80175913396482
tp290
a(F402.36288848263251
F266.97897623400365
tp291
a(F802.91271495570606
F477.2754038561751
tp292
a(F769.88301559792023
F502.5
tp293
a(F-1.7158119658120086
F66.788461538461547
tp294
a(F5
F46
tp295
asI750
(lp296
(F-1
F0
tp297
a(F-1
F10
tp298
a(F-0.28057094162761587
F22.146783127396674
tp299
a(F702.50995732574677
F764.34352773826458
tp300
a(F620.8643533123028
F791.20662460567826
tp301
a(F468.79984544049461
F284.03786707882534
tp302
asI2800
(lp303
(F-1
F0
tp304
a(F0.81764705882352473
F24.112971342383105
tp305
a(F360.71855146124523
F172.50635324015246
tp306
a(F419.10583016476551
F859.6013941698352
tp307
a(F184.89500734214391
F738.81571218795887
tp308
a(F-1
F50
tp309
asI250
(lp310
(F-1
F0
tp311
a(F1.9081942336874249
F5.4610520991401188
tp312
a(F116.42357373519914
F529.2707212055974
tp313
a(F636.02202937249672
F472.91789052069424
tp314
a(F731.95296167247386
F389.81184668989545
tp315
a(F794.66389548693587
F500.37767220902612
tp316
asI2300
(lp317
(F-1
F0
tp318
a(F-0.24434649290918742
F26.830778075891146
tp319
a(F619.65122470713527
F777.93556975505862
tp320
a(F676.20872274143301
F352.15264797507785
tp321
a(F717.54132231404958
F296.52892561983469
tp322
a(F-1
F50
tp323
asI4350
(lp324
(F-1
F0
tp325
a(F-1.631578947368439
F76.051209103840677
tp326
a(F763.85038759689928
F376.34806201550384
tp327
a(F-1
F30
tp328
a(F170
F711
tp329
a(F-0.43200468933173397
F55.022860492379777
tp330
asI1800
(lp331
(F-1
F0
tp332
a(F-1
F10
tp333
a(F406.41883116883116
F334.38961038961037
tp334
a(F533.19633201758631
F804.17748930934681
tp335
a(F788.39887680487459
F589.18947448764311
tp336
a(F2.2331875582348175
F28.23215324669647
tp337
asI3850
(lp338
(F-1
F0
tp339
a(F507
F171
tp340
a(F240
F510
tp341
a(F502
F860
tp342
a(F515.58558558558559
F221.56418918918919
tp343
a(F2.5943396226414848
F14.861185983827454
tp344
asI1300
(lp345
(F-1
F0
tp346
a(F-1
F10
tp347
a(F654.71240310077519
F773.79302325581398
tp348
a(F711.19958847736621
F749.02263374485597
tp349
a(F114.26588628762542
F550.12709030100336
tp350
a(F-1
F50
tp351
asI3349
(lp352
(F388.30404551201013
F212.27623261694058
tp353
a(F413.55714285714288
F266.05000000000001
tp354
a(F784.08181818181811
F500.57818181818175
tp355
a(F700.59515859766282
F299.10934891485812
tp356
a(F682.89280958721702
F558.22436750998668
tp357
a(F750.48404255319156
F459.72446808510631
tp358
asI800
(lp359
(F-1
F0
tp360
a(F-1
F10
tp361
a(F-72.922784810126586
F-40.394092827004215
tp362
a(F662.30294117647054
F801.00441176470588
tp363
a(F519.41176470588232
F777.87925696594425
tp364
a(F467.22231985940243
F281.49297012302287
tp365
asI2850
(lp366
(F-1
F0
tp367
a(F0.77580071174378418
F21.955516014234888
tp368
a(F544.02290076335873
F240.1135496183206
tp369
a(F622.62312312312315
F589.89339339339335
tp370
a(F698.8579545454545
F345.58522727272725
tp371
a(F-1
F50
tp372
asI300
(lp373
(F-1
F0
tp374
a(F-3.8536076326773809
F11.167859272510441
tp375
a(F345.95412311265972
F729.41637630662024
tp376
a(F295.32926829268291
F409.08130081300811
tp377
a(F378.30068728522338
F834.72565864833905
tp378
a(F755.04794520547944
F385.95703611457037
tp379
asI2350
(lp380
(F-1
F0
tp381
a(F5.5872508461827692
F28.932869499811972
tp382
a(F153.65573770491804
F631.49648711943792
tp383
a(F703.32534246575347
F326.84417808219177
tp384
a(F105.0797342192691
F618.77076411960138
tp385
a(F-1
F50
tp386
asI4400
(lp387
(F4.1490939044480797
F34.208401976935761
tp388
a(F-3.5727542687453706
F57.504454342984445
tp389
a(F411
F165
tp390
a(F586.36962750716327
F609.82664756446991
tp391
a(F690
F253
tp392
a(F433.57336683417088
F225.47185929648242
tp393
asI1850
(lp394
(F-1.5550461917428038
F20.53378735090422
tp395
a(F-1
F10
tp396
a(F143.37027707808565
F630.18387909319904
tp397
a(F337.36657106201756
F569.87519898976996
tp398
a(F700.72046011209022
F298.95009723808346
tp399
a(F0.29395541877568121
F43.476070687688065
tp400
asI3900
(lp401
(F399.55459387483347
F234.71704394141148
tp402
a(F580
F198
tp403
a(F292
F205
tp404
a(F674.18118466898954
F775.16898954703834
tp405
a(F516.19166666666672
F359.06833333333333
tp406
a(F431.4456681350955
F266.71732745961822
tp407
asI1350
(lp408
(F4.0404959980053832
F40.0858853924681
tp409
a(F-1
F10
tp410
a(F662.93082113164462
F785.1243437111857
tp411
a(F682.36634460547509
F744.80273752012886
tp412
a(F555.43040293040292
F826.56593406593402
tp413
a(F448.44131109364002
F224.01248549531044
tp414
asI3400
(lp415
(F386.66747967479677
F207.32276422764227
tp416
a(F425.79341317365271
F258.14670658682633
tp417
a(F515.0087108013937
F844.2433217189315
tp418
a(F142.90119760479041
F669.41467065868267
tp419
a(F441.93848580441642
F800.10883280757093
tp420
a(F505.10135900339753
F225.95073612684033
tp421
asI850
(lp422
(F-1
F0
tp423
a(F-1
F10
tp424
a(F-1
F20
tp425
a(F636.82146957520092
F820.92020665901259
tp426
a(F184
F244
tp427
a(F471
F281
tp428
asI2899
(lp429
(F0.80852503382948271
F34.751691474966179
tp430
a(F-0.478515625
F76.132161458333371
tp431
a(F339.71199143468948
F194.51927194860815
tp432
a(F730.01527777777778
F719.45972222222224
tp433
a(F328.61982248520712
F160.67899408284023
tp434
a(F418
F178
tp435
asI350
(lp436
(F0.63544668587894648
F7.9956772334294328
tp437
a(F-0.63580246913579685
F19.547325102880649
tp438
a(F621.3303886925795
F755.01943462897532
tp439
a(F726.39863842662635
F683.54084720121034
tp440
a(F781.50392156862745
F377.55882352941177
tp441
a(F792
F517
tp442
asI2400
(lp443
(F-1
F0
tp444
a(F2.3616887208569892
F37.235979836168895
tp445
a(F101.69701810436635
F604.16773162939296
tp446
a(F696.51655629139077
F331.33609271523181
tp447
a(F165.12318840579709
F721.62882447665061
tp448
a(F-1
F50
tp449
asI4450
(lp450
(F4.07669616519172
F44.882005899705007
tp451
a(F2.9336842105263372
F30.009473684210548
tp452
a(F368.55461165048541
F185.01820388349515
tp453
a(F360.91666666666669
F824.91840277777783
tp454
a(F516.00150602409633
F833.43524096385545
tp455
a(F441
F224
tp456
asI1900
(lp457
(F-1
F0
tp458
a(F-1
F10
tp459
a(F193.95847953216375
F232.84619883040935
tp460
a(F343.53548863585632
F308.51837805302785
tp461
a(F255.81223334612449
F192.54441628909078
tp462
a(F-2.2405600981470002
F22.389939496860336
tp463
asI4498
(lp464
(F-0.62322946175635252
F28.413597733711043
tp465
a(F4.9457579972183794
F95.074408901251729
tp466
a(F187.0712643678161
F333.56436781609193
tp467
a(F140.0014164305949
F342.94192634560909
tp468
a(F521.95814479638011
F173.77828054298644
tp469
a(F438
F224
tp470
asI3950
(lp471
(F-1
F0
tp472
a(F678
F369
tp473
a(F308
F195
tp474
a(F717
F744
tp475
a(F688.22930354796324
F588.08344283837062
tp476
a(F2.2568134171907559
F11.128930817610012
tp477
asI1400
(lp478
(F-3.248869018594803
F34.967787665960174
tp479
a(F379.02931323283082
F202.4824120603015
tp480
a(F735.34611121932858
F715.20476635074579
tp481
a(F813.16339066339071
F538.65233415233411
tp482
a(F137.61876075731499
F662.74612736660924
tp483
a(F457.24585804440835
F221.51924559464294
tp484
asI3450
(lp485
(F385.80440587449931
F209.35714285714286
tp486
a(F425.69642857142856
F252.80505952380952
tp487
a(F133.79189789123197
F666.89400665926746
tp488
a(F96.850162866449509
F369.28338762214986
tp489
a(F207.25613496932516
F467.59202453987729
tp490
a(F480.19262295081967
F488.43442622950818
tp491
asI900
(lp492
(F-1
F0
tp493
a(F2.2821561338290053
F23.391449814126389
tp494
a(F430.08652729384437
F229.45470383275261
tp495
a(F631.7166666666667
F827.57820512820513
tp496
a(F303.22000000000003
F786.24000000000001
tp497
a(F465.40000000000003
F275.78000000000003
tp498
asI2949
(lp499
(F0.56306306306305487
F72.412912912912901
tp500
a(F3.3634639696586532
F89.546776232616935
tp501
a(F680.36969253294285
F261.092972181552
tp502
a(F780.04876033057849
F547.75785123966944
tp503
a(F188.56718749999999
F759.03750000000002
tp504
a(F436
F182
tp505
asI400
(lp506
(F-1
F0
tp507
a(F0.57650643195665907
F8.7010832769126694
tp508
a(F770.12117346938771
F421.90561224489795
tp509
a(F-1
F30
tp510
a(F248.65281899109792
F784.32195845697333
tp511
a(F-1
F50
tp512
asI2450
(lp513
(F-1
F0
tp514
a(F1.6446559297218073
F23.984333821376282
tp515
a(F88.183098591549296
F614.99471830985919
tp516
a(F694.80373001776195
F325.63321492007105
tp517
a(F181.75
F750.4829545454545
tp518
a(F-1
F50
tp519
asI1950
(lp520
(F-1
F0
tp521
a(F-1
F10
tp522
a(F306.87919075144509
F172.45722543352602
tp523
a(F126.11001971559602
F447.88239970852925
tp524
a(F662.91077319385624
F265.80347265003917
tp525
a(F-1.9847605679897811
F26.283057597293862
tp526
asI4000
(lp527
(F388.90138888888896
F224.99861111111113
tp528
a(F460.24268292682927
F606.65365853658534
tp529
a(F165.76762589928057
F263.04244604316546
tp530
a(F803
F578
tp531
a(F710
F264
tp532
a(F428.51571709233804
F263.38605108055015
tp533
asI1450
(lp534
(F-14.281268544171894
F55.419096963382685
tp535
a(F-0.92865347033506396
F6.2060677521841683
tp536
a(F-1
F20
tp537
a(F-1
F30
tp538
a(F-1
F40
tp539
a(F455.75288996957204
F229.67852656891256
tp540
asI3500
(lp541
(F386.5820143884892
F208.43669064748201
tp542
a(F424.06606851549753
F252.03996737357258
tp543
a(F167.3900462962963
F296.7037037037037
tp544
a(F76.777652370203157
F391.40293453724604
tp545
a(F782.24397031539888
F524.28664192949907
tp546
a(F222.26416337285903
F449.51054018445325
tp547
asI950
(lp548
(F-1
F0
tp549
a(F-1
F10
tp550
a(F-1
F20
tp551
a(F459.42131147540982
F839.67704918032791
tp552
a(F577.49768600925574
F228.91433868226784
tp553
a(F465.82832136595965
F277.53682570175374
tp554
asI2999
(lp555
(F-6.4066666666666947
F70.325333333333333
tp556
a(F2.2275000000000205
F33.28449999999998
tp557
a(F313
F155
tp558
a(F771.03398058252424
F571.48474341192787
tp559
a(F764.4133333333333
F661.38499999999999
tp560
a(F419.88156209987199
F166.66005121638921
tp561
asI450
(lp562
(F-1
F0
tp563
a(F-1
F10
tp564
a(F462.49674267100977
F193.40010857763301
tp565
a(F616.02549575070816
F709.71246458923508
tp566
a(F250.57202216066483
F792.6786703601108
tp567
a(F766.01913875598086
F594.31698564593296
tp568
asI2500
(lp569
(F-1
F0
tp570
a(F0.12061403508772628
F28.838032581453632
tp571
a(F543.38322717622077
F606.44055201698518
tp572
a(F621.66313213703097
F390.73817292006527
tp573
a(F192.1396551724138
F735.81896551724139
tp574
a(F-1
F50
tp575
asI2000
(lp576
(F-1
F0
tp577
a(F-0.15718270571829862
F69.152719665272002
tp578
a(F-1
F20
tp579
a(F233
F681
tp580
a(F101.59048723897911
F454.96171693735505
tp581
a(F-1
F50
tp582
asI4050
(lp583
(F389.60914454277287
F219.33185840707964
tp584
a(F122.30524861878453
F531.76519337016578
tp585
a(F99.529562982005132
F359.43187660668377
tp586
a(F804
F423
tp587
a(F698
F242
tp588
a(F432.31316098707407
F260.51762632197415
tp589
asI1500
(lp590
(F3.7729038239566535
F44.385346920166711
tp591
a(F4.6122570452521359
F57.372836027845779
tp592
a(F554.99614791987676
F493.07010785824343
tp593
a(F789.08174533339582
F344.8572311371131
tp594
a(F489.10704914834912
F149.99099207515326
tp595
a(F453.3576094823236
F228.62188069080068
tp596
asI3550
(lp597
(F382.08678955453149
F205.06835637480799
tp598
a(F425.48608964451313
F253.38408037094283
tp599
a(F-0.33866575901974727
F71.028250510551402
tp600
a(F-1.999436302142044
F83.842728297632448
tp601
a(F513.37735849056605
F166.66981132075472
tp602
a(F166
F701
tp603
asI1000
(lp604
(F-1
F0
tp605
a(F3.7175052917697258
F24.440543598936131
tp606
a(F759.13806970509381
F475.05764075067026
tp607
a(F558.44701986754967
F824.26423841059602
tp608
a(F242.23743016759778
F225.15176908752329
tp609
a(F478.42261061144421
F280.05568355085063
tp610
asI3050
(lp611
(F2.2564516129032199
F12.766129032258078
tp612
a(F0.53581460674155323
F60.695926966292177
tp613
a(F136
F635
tp614
a(F789
F458
tp615
a(F793
F399
tp616
a(F424.75468577728776
F169.8891951488423
tp617
asI500
(lp618
(F-1
F0
tp619
a(F-2.0749718151071193
F17.076662908680959
tp620
a(F468.29468845760982
F216.75127681307455
tp621
a(F740.13081395348843
F504.41279069767444
tp622
a(F184.01315789473685
F732.99122807017545
tp623
a(F803.44722222222219
F450.12638888888887
tp624
asI2550
(lp625
(F-1
F0
tp626
a(F-0.67524980784014588
F18.927747886241349
tp627
a(F492.86671575846833
F279.88880706921947
tp628
a(F734.85704125177813
F348.94381223328594
tp629
a(F147.19316081330868
F720.85489833641407
tp630
a(F-1
F50
tp631
as.