(lp1
(I1
I00
tp2
a(I422
I00
tp3
a(I423
I00
tp4
a(I424
I00
tp5
a(I425
I00
tp6
a(I426
I00
tp7
a(I427
I00
tp8
a(I428
I00
tp9
a(I429
I00
tp10
a(I430
I00
tp11
a(I2
I01
tp12
a(I313
I01
tp13
a(I314
I01
tp14
a(I315
I01
tp15
a(I316
I01
tp16
a(I317
I01
tp17
a(I318
I01
tp18
a(I319
I01
tp19
a(I320
I01
tp20
a(I321
I01
tp21
a(I3
I00
tp22
a(I173
I00
tp23
a(I174
I00
tp24
a(I175
I00
tp25
a(I176
I00
tp26
a(I177
I00
tp27
a(I178
I00
tp28
a(I179
I00
tp29
a(I180
I00
tp30
a(I181
I00
tp31
a(I4
I00
tp32
a(I221
I00
tp33
a(I222
I00
tp34
a(I223
I00
tp35
a(I224
I00
tp36
a(I225
I00
tp37
a(I226
I00
tp38
a(I227
I00
tp39
a(I228
I00
tp40
a(I229
I00
tp41
a(I5
I01
tp42
a(I81
I01
tp43
a(I82
I01
tp44
a(I83
I01
tp45
a(I84
I01
tp46
a(I85
I01
tp47
a(I86
I01
tp48
a(I87
I01
tp49
a(I88
I01
tp50
a(I89
I01
tp51
a(I6
I01
tp52
a(I474
I01
tp53
a(I475
I01
tp54
a(I476
I01
tp55
a(I477
I00
tp56
a(I478
I00
tp57
a(I479
I00
tp58
a(I480
I01
tp59
a(I481
I01
tp60
a(I482
I01
tp61
a(I20550
I00
tp62
a(I20786
I01
tp63
a(I21001
I01
tp64
a(I21002
I01
tp65
a(I21003
I01
tp66
a(I21004
I01
tp67
a(I21005
I01
tp68
a(I21006
I01
tp69
a(I21007
I01
tp70
a(I21008
I01
tp71
a(I21009
I01
tp72
a(I20790
I00
tp73
a(I20793
I00
tp74
a(I20796
I00
tp75
a(I20840
I00
tp76
a(I20841
I00
tp77
a(I20842
I00
tp78
a(I20843
I00
tp79
a(I20844
I00
tp80
a(I20845
I00
tp81
a(I20846
I00
tp82
a(I20847
I00
tp83
a(I20802
I00
tp84
a(I10784
I00
tp85
a(I10837
I00
tp86
a(I10838
I00
tp87
a(I10839
I00
tp88
a(I10840
I00
tp89
a(I10841
I00
tp90
a(I10785
I01
tp91
a(I11213
I01
tp92
a(I11214
I01
tp93
a(I11215
I01
tp94
a(I11216
I01
tp95
a(I10787
I01
tp96
a(I10790
I00
tp97
a(I10891
I00
tp98
a(I10892
I00
tp99
a(I10893
I00
tp100
a(I10894
I00
tp101
a(I10895
I00
tp102
a(I10896
I00
tp103
a(I10897
I00
tp104
a(I10898
I00
tp105
a(I10899
I00
tp106
a(I10791
I01
tp107
a(I10875
I01
tp108
a(I10876
I01
tp109
a(I10877
I01
tp110
a(I10878
I01
tp111
a(I10879
I01
tp112
a(I10880
I01
tp113
a(I10881
I01
tp114
a(I10882
I01
tp115
a(I10883
I00
tp116
a(I11
I00
tp117
a(I12
I00
tp118
a(I13
I00
tp119
a(I20806
I00
tp120
a(I20838
I00
tp121
a(I20808
I00
tp122
a(I16
I00
tp123
a(I19
I00
tp124
a(I22
I00
tp125
a(I25
I00
tp126
a(I23
I00
tp127
a(I26
I00
tp128
a(I24
I00
tp129
a(I27
I00
tp130
a(I20827
I00
tp131
a(I33
I00
tp132
a(I470
I00
tp133
a(I471
I00
tp134
a(I36
I00
tp135
a(I34
I00
tp136
a(I411
I00
tp137
a(I412
I00
tp138
a(I413
I00
tp139
a(I414
I00
tp140
a(I415
I00
tp141
a(I416
I00
tp142
a(I417
I00
tp143
a(I418
I00
tp144
a(I419
I00
tp145
a(I35
I00
tp146
a(I472
I00
tp147
a(I473
I00
tp148
a(I37
I00
tp149
a(I20832
I00
tp150
a(I21101
I00
tp151
a(I21102
I00
tp152
a(I21103
I00
tp153
a(I21104
I00
tp154
a(I21105
I00
tp155
a(I21106
I00
tp156
a(I21107
I00
tp157
a(I21108
I00
tp158
a(I21109
I00
tp159
a(I20833
I01
tp160
a(I21089
I01
tp161
a(I21090
I01
tp162
a(I21091
I01
tp163
a(I21092
I01
tp164
a(I21093
I01
tp165
a(I21094
I01
tp166
a(I21095
I01
tp167
a(I21096
I01
tp168
a(I21097
I01
tp169
a(I41
I00
tp170
a(I420
I00
tp171
a(I421
I00
tp172
a(I44
I00
tp173
a(I42
I00
tp174
a(I522
I00
tp175
a(I523
I00
tp176
a(I45
I00
tp177
a(I525
I00
tp178
a(I529
I00
tp179
a(I528
I00
tp180
a(I530
I00
tp181
a(I534
I00
tp182
a(I535
I01
tp183
a(I792
I01
tp184
a(I793
I01
tp185
a(I794
I01
tp186
a(I795
I01
tp187
a(I796
I01
tp188
a(I797
I01
tp189
a(I798
I01
tp190
a(I799
I01
tp191
a(I800
I01
tp192
a(I536
I01
tp193
a(I887
I01
tp194
a(I888
I01
tp195
a(I889
I01
tp196
a(I890
I01
tp197
a(I891
I01
tp198
a(I892
I01
tp199
a(I893
I01
tp200
a(I894
I01
tp201
a(I895
I01
tp202
a(I537
I01
tp203
a(I540
I00
tp204
a(I983
I00
tp205
a(I542
I00
tp206
a(I13667
I00
tp207
a(I13669
I00
tp208
a(I13885
I00
tp209
a(I13886
I00
tp210
a(I13887
I00
tp211
a(I13888
I00
tp212
a(I13889
I00
tp213
a(I13890
I00
tp214
a(I13891
I00
tp215
a(I13892
I01
tp216
a(I13893
I01
tp217
a(I547
I01
tp218
a(I549
I01
tp219
a(I21118
I01
tp220
a(I552
I00
tp221
a(I553
I01
tp222
a(I554
I01
tp223
a(I556
I00
tp224
a(I984
I00
tp225
a(I985
I00
tp226
a(I986
I00
tp227
a(I987
I00
tp228
a(I559
I00
tp229
a(I557
I01
tp230
a(I992
I01
tp231
a(I993
I01
tp232
a(I994
I01
tp233
a(I995
I01
tp234
a(I996
I01
tp235
a(I997
I01
tp236
a(I998
I01
tp237
a(I999
I01
tp238
a(I1000
I01
tp239
a(I558
I01
tp240
a(I988
I01
tp241
a(I989
I01
tp242
a(I990
I01
tp243
a(I991
I01
tp244
a(I560
I01
tp245
a(I562
I00
tp246
a(I775
I00
tp247
a(I776
I00
tp248
a(I777
I00
tp249
a(I778
I00
tp250
a(I779
I00
tp251
a(I780
I00
tp252
a(I781
I00
tp253
a(I782
I00
tp254
a(I783
I00
tp255
a(I563
I01
tp256
a(I1001
I01
tp257
a(I1002
I01
tp258
a(I565
I01
tp259
a(I21127
I01
tp260
a(I21129
I01
tp261
a(I568
I01
tp262
a(I569
I01
tp263
a(I574
I00
tp264
a(I578
I00
tp265
a(I579
I01
tp266
a(I580
I01
tp267
a(I583
I00
tp268
a(I588
I01
tp269
a(I606
I01
tp270
a(I607
I01
tp271
a(I608
I01
tp272
a(I609
I01
tp273
a(I610
I01
tp274
a(I611
I01
tp275
a(I612
I01
tp276
a(I613
I01
tp277
a(I614
I01
tp278
a(I590
I01
tp279
a(I631
I01
tp280
a(I632
I01
tp281
a(I633
I01
tp282
a(I634
I01
tp283
a(I635
I01
tp284
a(I636
I01
tp285
a(I637
I01
tp286
a(I638
I00
tp287
a(I639
I00
tp288
a(I591
I01
tp289
a(I620
I01
tp290
a(I621
I01
tp291
a(I622
I01
tp292
a(I623
I01
tp293
a(I624
I01
tp294
a(I625
I01
tp295
a(I626
I01
tp296
a(I627
I01
tp297
a(I628
I01
tp298
a(I21166
I01
tp299
a(I21281
I01
tp300
a(I21282
I01
tp301
a(I21283
I01
tp302
a(I21284
I01
tp303
a(I21285
I01
tp304
a(I21169
I01
tp305
a(I21474
I00
tp306
a(I21736
I00
tp307
a(I21737
I00
tp308
a(I21480
I01
tp309
a(I21489
I01
tp310
a(I21490
I01
tp311
a(I21495
I01
tp312
a(I21528
I01
tp313
a(I21529
I01
tp314
a(I21530
I01
tp315
a(I21531
I01
tp316
a(I21532
I01
tp317
a(I21533
I01
tp318
a(I21534
I01
tp319
a(I21535
I01
tp320
a(I21536
I01
tp321
a(I21500
I00
tp322
a(I21501
I01
tp323
a(I21503
I01
tp324
a(I21505
I01
tp325
a(I21598
I01
tp326
a(I21599
I01
tp327
a(I21600
I01
tp328
a(I21601
I01
tp329
a(I21602
I01
tp330
a(I21603
I01
tp331
a(I21604
I01
tp332
a(I21605
I01
tp333
a(I21606
I01
tp334
a(I21507
I00
tp335
a(I21853
I01
tp336
a(I21855
I01
tp337
a(I21860
I01
tp338
a(I22138
I01
tp339
a(I22139
I01
tp340
a(I22140
I01
tp341
a(I22141
I01
tp342
a(I22142
I00
tp343
a(I22143
I00
tp344
a(I22144
I00
tp345
a(I21862
I00
tp346
a(I1615
I01
tp347
a(I2143
I01
tp348
a(I2144
I01
tp349
a(I2145
I01
tp350
a(I2146
I01
tp351
a(I2147
I01
tp352
a(I2148
I01
tp353
a(I2149
I01
tp354
a(I2150
I01
tp355
a(I2151
I01
tp356
a(I1618
I01
tp357
a(I2056
I01
tp358
a(I2057
I01
tp359
a(I2058
I01
tp360
a(I2059
I01
tp361
a(I2060
I01
tp362
a(I2061
I01
tp363
a(I2062
I01
tp364
a(I2063
I01
tp365
a(I2064
I01
tp366
a(I1619
I00
tp367
a(I2134
I00
tp368
a(I2135
I00
tp369
a(I2136
I00
tp370
a(I2137
I00
tp371
a(I2138
I00
tp372
a(I2139
I01
tp373
a(I2140
I01
tp374
a(I2141
I01
tp375
a(I2142
I01
tp376
a(I21865
I01
tp377
a(I21866
I00
tp378
a(I21905
I00
tp379
a(I21906
I00
tp380
a(I21870
I00
tp381
a(I21867
I01
tp382
a(I21872
I01
tp383
a(I21873
I00
tp384
a(I21874
I01
tp385
a(I21876
I01
tp386
a(I21919
I01
tp387
a(I21920
I01
tp388
a(I21921
I01
tp389
a(I21880
I01
tp390
a(I21877
I00
tp391
a(I21916
I00
tp392
a(I21917
I00
tp393
a(I21918
I00
tp394
a(I21879
I00
tp395
a(I21878
I01
tp396
a(I21908
I01
tp397
a(I21909
I01
tp398
a(I21910
I01
tp399
a(I21911
I01
tp400
a(I21912
I01
tp401
a(I21913
I01
tp402
a(I21914
I01
tp403
a(I21915
I01
tp404
a(I21885
I01
tp405
a(I1624
I01
tp406
a(I1663
I01
tp407
a(I1664
I01
tp408
a(I1665
I01
tp409
a(I1666
I01
tp410
a(I1667
I01
tp411
a(I1668
I01
tp412
a(I1669
I01
tp413
a(I1670
I01
tp414
a(I1671
I01
tp415
a(I1625
I00
tp416
a(I1713
I00
tp417
a(I1714
I00
tp418
a(I1715
I00
tp419
a(I1716
I01
tp420
a(I1717
I01
tp421
a(I1718
I01
tp422
a(I1719
I01
tp423
a(I1720
I01
tp424
a(I1721
I01
tp425
a(I1630
I00
tp426
a(I1862
I00
tp427
a(I1863
I00
tp428
a(I1864
I00
tp429
a(I1865
I00
tp430
a(I1866
I00
tp431
a(I1867
I00
tp432
a(I1868
I00
tp433
a(I1869
I00
tp434
a(I1870
I00
tp435
a(I1631
I01
tp436
a(I1923
I01
tp437
a(I1924
I01
tp438
a(I1925
I01
tp439
a(I1926
I01
tp440
a(I1927
I01
tp441
a(I1928
I01
tp442
a(I1929
I01
tp443
a(I1930
I00
tp444
a(I1931
I01
tp445
a(I21888
I01
tp446
a(I22103
I01
tp447
a(I21890
I01
tp448
a(I21889
I01
tp449
a(I22102
I01
tp450
a(I21891
I01
tp451
a(I21894
I01
tp452
a(I22059
I01
tp453
a(I22060
I01
tp454
a(I22061
I01
tp455
a(I22062
I01
tp456
a(I22063
I01
tp457
a(I22064
I01
tp458
a(I22065
I01
tp459
a(I22066
I01
tp460
a(I22067
I01
tp461
a(I21895
I01
tp462
a(I1636
I01
tp463
a(I1637
I01
tp464
a(I1639
I01
tp465
a(I1640
I01
tp466
a(I1642
I01
tp467
a(I1643
I01
tp468
a(I2183
I01
tp469
a(I2603
I01
tp470
a(I2604
I01
tp471
a(I2605
I01
tp472
a(I2606
I01
tp473
a(I2607
I01
tp474
a(I2608
I01
tp475
a(I2609
I01
tp476
a(I2610
I01
tp477
a(I2611
I01
tp478
a(I2188
I01
tp479
a(I2483
I01
tp480
a(I2484
I01
tp481
a(I2485
I01
tp482
a(I2486
I01
tp483
a(I2487
I01
tp484
a(I2488
I01
tp485
a(I2489
I01
tp486
a(I2490
I01
tp487
a(I2491
I01
tp488
a(I2193
I00
tp489
a(I2227
I00
tp490
a(I2228
I00
tp491
a(I2229
I00
tp492
a(I2230
I00
tp493
a(I2231
I00
tp494
a(I2232
I00
tp495
a(I2233
I00
tp496
a(I2234
I00
tp497
a(I2235
I00
tp498
a(I2194
I01
tp499
a(I2213
I01
tp500
a(I2214
I01
tp501
a(I2205
I01
tp502
a(I2307
I01
tp503
a(I2317
I01
tp504
a(I2327
I01
tp505
a(I2206
I00
tp506
a(I2734
I00
tp507
a(I2744
I00
tp508
a(I2754
I00
tp509
a(I3169
I00
tp510
a(I3179
I00
tp511
a(I3189
I00
tp512
a(I3199
I00
tp513
a(I3209
I00
tp514
a(I3219
I00
tp515
a(I20812
I00
tp516
a(I21122
I01
tp517
a(I21199
I01
tp518
a(I21123
I01
tp519
a(I3980
I01
tp520
a(I3981
I00
tp521
a(I10354
I00
tp522
a(I14016
I00
tp523
a(I14088
I00
tp524
a(I14098
I01
tp525
a(I14108
I00
tp526
a(I14118
I00
tp527
a(I14128
I00
tp528
a(I14138
I00
tp529
a(I14148
I01
tp530
a(I14158
I01
tp531
a(I14676
I01
tp532
a(I14017
I01
tp533
a(I14170
I01
tp534
a(I29
I00
tp535
a(I30
I00
tp536
a(I31
I00
tp537
a(I7902
I00
tp538
a(I13249
I01
tp539
a(I13425
I01
tp540
a(I2775
I01
tp541
a(I3603
I01
tp542
a(I3613
I01
tp543
a(I3623
I00
tp544
a(I3633
I01
tp545
a(I3643
I00
tp546
a(I3653
I01
tp547
a(I3663
I01
tp548
a(I3673
I01
tp549
a(I3683
I00
tp550
a(I2776
I01
tp551
a(I3877
I01
tp552
a(I3887
I01
tp553
a(I3897
I01
tp554
a(I3907
I01
tp555
a(I3917
I01
tp556
a(I3927
I01
tp557
a(I3937
I01
tp558
a(I3947
I01
tp559
a(I13253
I00
tp560
a(I13255
I01
tp561
a(I13256
I00
tp562
a(I13259
I01
tp563
a(I13263
I00
tp564
a(I13264
I00
tp565
a(I13339
I00
tp566
a(I13349
I00
tp567
a(I13359
I01
tp568
a(I13267
I01
tp569
a(I13382
I01
tp570
a(I13392
I01
tp571
a(I7908
I00
tp572
a(I8076
I00
tp573
a(I8086
I00
tp574
a(I8096
I00
tp575
a(I8729
I01
tp576
a(I8739
I01
tp577
a(I8749
I01
tp578
a(I8759
I00
tp579
a(I8769
I00
tp580
a(I8779
I00
tp581
a(I13270
I00
tp582
a(I2199
I01
tp583
a(I2344
I01
tp584
a(I2200
I00
tp585
a(I2356
I00
tp586
a(I2366
I00
tp587
a(I2376
I01
tp588
a(I2386
I01
tp589
a(I2396
I01
tp590
a(I2790
I00
tp591
a(I2800
I00
tp592
a(I2810
I00
tp593
a(I2820
I00
tp594
a(I13276
I00
tp595
a(I13277
I01
tp596
a(I13281
I00
tp597
a(I13316
I01
tp598
a(I13646
I01
tp599
a(I13686
I01
tp600
a(I13696
I01
tp601
a(I13706
I01
tp602
a(I13716
I00
tp603
a(I13656
I00
tp604
a(I13657
I00
tp605
a(I13738
I00
tp606
a(I13748
I00
tp607
a(I13758
I00
tp608
a(I13768
I00
tp609
a(I13778
I00
tp610
a(I13788
I01
tp611
a(I13798
I01
tp612
a(I14380
I00
tp613
a(I14390
I00
tp614
a(I13662
I00
tp615
a(I3369
I00
tp616
a(I3402
I01
tp617
a(I3370
I01
tp618
a(I3390
I00
tp619
a(I3959
I01
tp620
a(I4406
I01
tp621
a(I4416
I00
tp622
a(I4426
I00
tp623
a(I4436
I00
tp624
a(I4446
I00
tp625
a(I4456
I00
tp626
a(I4466
I01
tp627
a(I4476
I01
tp628
a(I4486
I01
tp629
a(I3964
I01
tp630
a(I4022
I01
tp631
a(I4032
I01
tp632
a(I4042
I00
tp633
a(I4052
I00
tp634
a(I4062
I00
tp635
a(I4072
I00
tp636
a(I4082
I00
tp637
a(I4092
I00
tp638
a(I4921
I01
tp639
a(I3967
I00
tp640
a(I3973
I00
tp641
a(I4168
I00
tp642
a(I4178
I00
tp643
a(I4188
I00
tp644
a(I4198
I00
tp645
a(I4208
I00
tp646
a(I4218
I01
tp647
a(I4228
I01
tp648
a(I4699
I01
tp649
a(I4709
I01
tp650
a(I3975
I00
tp651
a(I4136
I01
tp652
a(I4146
I00
tp653
a(I4156
I00
tp654
a(I3976
I01
tp655
a(I4104
I01
tp656
a(I4114
I01
tp657
a(I4124
I01
tp658
a(I14007
I00
tp659
a(I14012
I00
tp660
a(I14300
I00
tp661
a(I14310
I00
tp662
a(I14320
I00
tp663
a(I14330
I00
tp664
a(I14340
I00
tp665
a(I3986
I01
tp666
a(I3987
I00
tp667
a(I3992
I01
tp668
a(I3993
I00
tp669
a(I3998
I01
tp670
a(I3999
I00
tp671
a(I4003
I01
tp672
a(I4499
I00
tp673
a(I4639
I00
tp674
a(I4649
I00
tp675
a(I4659
I00
tp676
a(I4004
I01
tp677
a(I4501
I00
tp678
a(I4672
I00
tp679
a(I4682
I00
tp680
a(I4692
I00
tp681
a(I6247
I01
tp682
a(I6614
I01
tp683
a(I6624
I01
tp684
a(I6634
I01
tp685
a(I6644
I01
tp686
a(I7021
I01
tp687
a(I7031
I01
tp688
a(I7041
I01
tp689
a(I7051
I01
tp690
a(I7061
I01
tp691
a(I6248
I00
tp692
a(I6573
I00
tp693
a(I6583
I00
tp694
a(I6593
I00
tp695
a(I6603
I00
tp696
a(I7206
I00
tp697
a(I7216
I00
tp698
a(I7226
I00
tp699
a(I7236
I01
tp700
a(I7246
I01
tp701
a(I6249
I01
tp702
a(I6533
I00
tp703
a(I6543
I00
tp704
a(I6553
I01
tp705
a(I6563
I01
tp706
a(I14018
I00
tp707
a(I14024
I00
tp708
a(I14027
I00
tp709
a(I14028
I01
tp710
a(I14029
I00
tp711
a(I14048
I00
tp712
a(I14058
I00
tp713
a(I14068
I00
tp714
a(I14481
I00
tp715
a(I14491
I00
tp716
a(I14501
I01
tp717
a(I14511
I00
tp718
a(I14521
I00
tp719
a(I14531
I01
tp720
a(I14031
I01
tp721
a(I14443
I00
tp722
a(I14453
I00
tp723
a(I14035
I00
tp724
a(I14581
I01
tp725
a(I14591
I00
tp726
a(I14601
I00
tp727
a(I14611
I01
tp728
a(I14621
I00
tp729
a(I14631
I01
tp730
a(I14032
I00
tp731
a(I14414
I00
tp732
a(I14424
I00
tp733
a(I14033
I00
tp734
a(I14777
I00
tp735
a(I14787
I00
tp736
a(I14797
I00
tp737
a(I14807
I00
tp738
a(I14817
I00
tp739
a(I14827
I01
tp740
a(I4509
I00
tp741
a(I4510
I00
tp742
a(I4516
I01
tp743
a(I4519
I01
tp744
a(I4521
I01
tp745
a(I4571
I01
tp746
a(I4581
I01
tp747
a(I4591
I01
tp748
a(I5517
I00
tp749
a(I5527
I00
tp750
a(I5537
I01
tp751
a(I5547
I01
tp752
a(I5557
I01
tp753
a(I5567
I01
tp754
a(I4524
I01
tp755
a(I4531
I01
tp756
a(I4533
I01
tp757
a(I4539
I01
tp758
a(I4544
I01
tp759
a(I5037
I01
tp760
a(I5047
I01
tp761
a(I5057
I01
tp762
a(I5067
I01
tp763
a(I5077
I01
tp764
a(I5087
I01
tp765
a(I5097
I01
tp766
a(I5107
I01
tp767
a(I5117
I01
tp768
a(I5024
I00
tp769
a(I5142
I01
tp770
a(I5152
I01
tp771
a(I5162
I00
tp772
a(I5172
I00
tp773
a(I5182
I01
tp774
a(I5192
I01
tp775
a(I5202
I01
tp776
a(I5212
I01
tp777
a(I5222
I01
tp778
a(I5025
I01
tp779
a(I5232
I01
tp780
a(I5242
I01
tp781
a(I5252
I00
tp782
a(I5262
I01
tp783
a(I5272
I00
tp784
a(I5282
I00
tp785
a(I5292
I01
tp786
a(I5302
I00
tp787
a(I5312
I00
tp788
a(I8341
I01
tp789
a(I8342
I01
tp790
a(I2770
I01
tp791
a(I2982
I00
tp792
a(I2992
I01
tp793
a(I3002
I00
tp794
a(I3012
I01
tp795
a(I3022
I00
tp796
a(I3032
I01
tp797
a(I3042
I01
tp798
a(I3052
I01
tp799
a(I3062
I01
tp800
a(I2771
I00
tp801
a(I2887
I00
tp802
a(I2897
I01
tp803
a(I2907
I01
tp804
a(I2917
I01
tp805
a(I2927
I01
tp806
a(I21135
I01
tp807
a(I21137
I01
tp808
a(I11725
I00
tp809
a(I11821
I00
tp810
a(I11726
I00
tp811
a(I11804
I00
tp812
a(I21140
I01
tp813
a(I21141
I01
tp814
a(I15072
I00
tp815
a(I15524
I00
tp816
a(I15534
I00
tp817
a(I15544
I00
tp818
a(I15554
I01
tp819
a(I15974
I01
tp820
a(I15984
I01
tp821
a(I15994
I00
tp822
a(I16004
I00
tp823
a(I16014
I01
tp824
a(I15073
I01
tp825
a(I15481
I01
tp826
a(I15491
I01
tp827
a(I15501
I01
tp828
a(I15511
I01
tp829
a(I16072
I01
tp830
a(I16082
I01
tp831
a(I17958
I00
tp832
a(I6797
I01
tp833
a(I6798
I00
tp834
a(I15672
I01
tp835
a(I15787
I01
tp836
a(I15797
I01
tp837
a(I15807
I01
tp838
a(I15817
I01
tp839
a(I15827
I01
tp840
a(I15837
I01
tp841
a(I15847
I01
tp842
a(I15673
I01
tp843
a(I16099
I01
tp844
a(I16109
I01
tp845
a(I16119
I01
tp846
a(I16129
I01
tp847
a(I16139
I01
tp848
a(I16149
I01
tp849
a(I16159
I01
tp850
a(I6220
I01
tp851
a(I6221
I00
tp852
a(I6223
I01
tp853
a(I6224
I00
tp854
a(I6226
I01
tp855
a(I6511
I01
tp856
a(I6521
I01
tp857
a(I6227
I00
tp858
a(I6493
I00
tp859
a(I21159
I01
tp860
a(I21160
I00
tp861
a(I21268
I01
tp862
a(I21836
I01
tp863
a(I6233
I01
tp864
a(I6234
I00
tp865
a(I6235
I01
tp866
a(I6283
I01
tp867
a(I6239
I01
tp868
a(I6240
I00
tp869
a(I6241
I01
tp870
a(I6246
I01
tp871
a(I16269
I01
tp872
a(I16270
I01
tp873
a(I16271
I01
tp874
a(I16273
I01
tp875
a(I16403
I01
tp876
a(I16274
I01
tp877
a(I16275
I01
tp878
a(I16279
I01
tp879
a(I16464
I01
tp880
a(I16474
I00
tp881
a(I16484
I01
tp882
a(I16494
I00
tp883
a(I16504
I00
tp884
a(I16514
I01
tp885
a(I16524
I01
tp886
a(I16534
I01
tp887
a(I17174
I01
tp888
a(I16280
I01
tp889
a(I16284
I01
tp890
a(I16548
I01
tp891
a(I16558
I01
tp892
a(I16568
I01
tp893
a(I16578
I01
tp894
a(I16588
I01
tp895
a(I16598
I01
tp896
a(I16608
I01
tp897
a(I17288
I01
tp898
a(I17298
I01
tp899
a(I16285
I01
tp900
a(I16624
I00
tp901
a(I16634
I00
tp902
a(I16644
I00
tp903
a(I16654
I01
tp904
a(I16664
I00
tp905
a(I16674
I00
tp906
a(I16684
I01
tp907
a(I17190
I01
tp908
a(I17200
I00
tp909
a(I16289
I01
tp910
a(I16414
I01
tp911
a(I16424
I00
tp912
a(I16434
I01
tp913
a(I16444
I00
tp914
a(I16849
I00
tp915
a(I17064
I00
tp916
a(I17074
I01
tp917
a(I17084
I00
tp918
a(I17094
I01
tp919
a(I6801
I01
tp920
a(I6802
I00
tp921
a(I6806
I01
tp922
a(I6807
I00
tp923
a(I6811
I01
tp924
a(I7122
I01
tp925
a(I7132
I01
tp926
a(I7142
I01
tp927
a(I7152
I00
tp928
a(I7162
I00
tp929
a(I7172
I00
tp930
a(I7182
I01
tp931
a(I7192
I01
tp932
a(I7588
I01
tp933
a(I6812
I00
tp934
a(I7307
I00
tp935
a(I7317
I00
tp936
a(I7327
I00
tp937
a(I7337
I00
tp938
a(I7347
I00
tp939
a(I7357
I01
tp940
a(I7367
I01
tp941
a(I7377
I01
tp942
a(I7794
I01
tp943
a(I16856
I01
tp944
a(I21483
I01
tp945
a(I16859
I01
tp946
a(I16863
I01
tp947
a(I16864
I01
tp948
a(I16866
I01
tp949
a(I16867
I01
tp950
a(I20798
I01
tp951
a(I16870
I01
tp952
a(I16871
I01
tp953
a(I16876
I01
tp954
a(I16946
I01
tp955
a(I16877
I01
tp956
a(I16956
I00
tp957
a(I17390
I01
tp958
a(I17391
I00
tp959
a(I10310
I01
tp960
a(I10494
I01
tp961
a(I10504
I01
tp962
a(I10514
I01
tp963
a(I10524
I00
tp964
a(I10534
I00
tp965
a(I17890
I01
tp966
a(I17893
I00
tp967
a(I17898
I01
tp968
a(I18222
I01
tp969
a(I17899
I01
tp970
a(I18128
I01
tp971
a(I18138
I01
tp972
a(I18148
I00
tp973
a(I18158
I01
tp974
a(I18168
I00
tp975
a(I18178
I01
tp976
a(I18188
I01
tp977
a(I18198
I01
tp978
a(I18208
I00
tp979
a(I17900
I01
tp980
a(I18323
I01
tp981
a(I18333
I01
tp982
a(I18343
I01
tp983
a(I18353
I01
tp984
a(I18363
I01
tp985
a(I17904
I01
tp986
a(I17905
I00
tp987
a(I17909
I01
tp988
a(I17910
I00
tp989
a(I17913
I01
tp990
a(I17914
I00
tp991
a(I17919
I01
tp992
a(I17920
I00
tp993
a(I17924
I01
tp994
a(I17925
I00
tp995
a(I17927
I01
tp996
a(I17928
I00
tp997
a(I17930
I01
tp998
a(I17931
I00
tp999
a(I17936
I01
tp1000
a(I17937
I00
tp1001
a.