(iexperiment_params
Params
p0
(dp1
S'frame'
p2
I2
sS'use_gt'
p3
I01
sS'video_file_name'
p4
S'/home/flipajs/Dropbox/PycharmProjects/data/eight/eight.m4v'
p5
sS'border'
p6
I0
sS'predefined_vals'
p7
S'eight'
p8
sS'imshow_decreasing_factor'
p9
F0.5
sS'show_mser_collection'
p10
I00
sS'max_axis_ratio_diff'
p11
I2
sS'dynamic_intensity_threshold_history'
p12
I5
sS'ant_number'
p13
I8
sS'show_ants_collection'
p14
I01
sS'intensity_threshold'
p15
F182.72000000000003
sS'max_area_diff'
p16
F0.6
sS'dynamic_intensity_threshold'
p17
I01
sS'arena'
p18
(imy_utils
RotatedRect
p19
(dp20
S'angle'
p21
I0
sS'center'
p22
(imy_utils
Point
p23
(dp24
S'y'
p25
I570
sS'x'
p26
I593
sbsS'size'
p27
(imy_utils
Size
p28
(dp29
S'width'
p30
I688
sS'height'
p31
I688
sbsbsS'mser_times'
p32
F0.13564515113830566
sS'avg_ant_axis_ratio'
p33
F4.258971634025407
sS'dynamic_intensity_threshold_increase'
p34
F0.0
sS'undefined_threshold'
p35
F0.0001
sS'avg_ant_axis_a'
p36
F18.091981646342823
sS'avg_ant_area'
p37
I244
sS'avg_ant_axis_b'
p38
F4.299068934612305
sb.