(lp0
(iant
Ant
p1
(dp2
S'area_weighted'
p3
F296.064966
sS'name'
p4
S'Arnold'
p5
sS'color'
p6
(I145
I95
I22
tp7
sS'state'
p8
(iant
AntState
p9
(dp10
S'a'
p11
F18.462001691672683
sS'info'
p12
S''
p13
sS'head'
p14
(imy_utils
Point
p15
(dp16
S'y'
p17
F544.1081825657639
sS'x'
p18
F417.0035216433449
sbsS'b'
p19
F5.482750218363485
sS'lost'
p20
I00
sS'area'
p21
I318
sS'axis_ratio'
p22
F3.3672884877807365
sS'collision_predicted'
p23
I00
sS'back'
p24
(imy_utils
Point
p25
(dp26
g17
F580.9547105159972
sg18
F414.61283055791296
sbsS'collisions'
p27
(lp28
sS'score'
p29
cnumpy.core.multiarray
scalar
p30
(cnumpy
dtype
p31
(S'f8'
p32
I0
I1
tp33
Rp34
(I3
S'<'
p35
NNNI-1
I-1
I0
tp36
bS'J\xdf\x07\x1c\x90\xf0\xef?'
p37
tp38
Rp39
sS'theta'
p40
F1.506004745375229
sS'position'
p41
(imy_utils
Point
p42
(dp43
g17
F562.5314465408806
sg18
F415.80817610062894
sbsS'mser_id'
p44
I0
sS'lost_time'
p45
I0
sbsS'id'
p46
I0
sS'history'
p47
ccollections
deque
p48
((lp49
(iant
AntState
p50
(dp51
g11
F18.16548076690474
sg12
g13
sg14
(imy_utils
Point
p52
(dp53
g17
F545.2518538108126
sg18
F415.9609055019423
sbsg19
F5.502155739461933
sg20
I00
sg21
I314
sg22
F3.301520645193729
sg23
I01
sg24
(imy_utils
Point
p54
(dp55
g17
F581.5570633866397
sg18
F414.59323462544626
sbsg27
(lp56
(I7
F19.905782993074347
g30
(g31
(S'i8'
p57
I0
I1
tp58
Rp59
(I3
S'<'
p60
NNNI-1
I-1
I0
tp61
bS'\x06\x00\x00\x00\x00\x00\x00\x00'
p62
tp63
Rp64
tp65
asg29
g30
(g34
S'\xd0r\x93z\xb9\x95\xef?'
p66
tp67
Rp68
sg41
(imy_utils
Point
p69
(dp70
g17
F563.4044585987261
sg18
F415.2770700636943
sbsg40
F1.5331426547583764
sg44
I0
sg45
I0
sba(iant
AntState
p71
(dp72
g11
F17.88490374052986
sg12
g13
sg14
(imy_utils
Point
p73
(dp74
g17
F546.8258287906285
sg18
F413.5946550052728
sbsg19
F4.662993516211255
sg20
I00
sg21
I262
sg22
F3.835498307761231
sg23
I00
sg24
(imy_utils
Point
p75
(dp76
g17
F582.5482170108983
sg18
F415.4358793458723
sbsg27
(lp77
sg29
g30
(g34
S')\xdct\xa2\xc1\xd1\xef?'
p78
tp79
Rp80
sg41
(imy_utils
Point
p81
(dp82
g17
F564.6870229007634
sg18
F414.51526717557255
sbsg40
F1.6222933441337424
sg44
I0
sg45
I0
sba(iant
AntState
p83
(dp84
g11
F18.321852799321075
sg12
g13
sg14
(imy_utils
Point
p85
(dp86
g17
F546.727808903749
sg18
F411.77701423546415
sbsg19
F5.142478074809847
sg20
I00
sg21
I296
sg22
F3.562845097788494
sg24
(imy_utils
Point
p87
(dp88
g17
F583.1032721773321
sg18
F416.20271549426553
sbsg29
I0
sg41
(imy_utils
Point
p89
(dp90
g17
F564.9155405405405
sg18
F413.98986486486484
sbsg40
F1.6918684737487757
sg44
I0
sg45
I0
sbatp91
Rp92
sba(iant
Ant
p93
(dp94
g3
F290.63179399999996
sg4
S'Bob'
p95
sg6
(I54
I38
I227
tp96
sg8
(iant
AntState
p97
(dp98
g11
F19.22504360001156
sg12
g13
sg14
(imy_utils
Point
p99
(dp100
g17
F768.9279737358288
sg18
F794.1752329156026
sbsg19
F6.0433209346278804
sg20
I00
sg21
I365
sg22
F3.181205136707728
sg23
I00
sg24
(imy_utils
Point
p101
(dp102
g17
F775.1898344833494
sg18
F756.2384657145343
sbsg27
(lp103
sg29
g30
(g34
S'A3o\xe3>\xbf\xef?'
p104
tp105
Rp106
sg40
F0.16358548874295958
sg41
(imy_utils
Point
p107
(dp108
g17
F772.0589041095891
sg18
F775.2068493150684
sbsg44
I9
sg45
I0
sbsg46
I1
sg47
g48
((lp109
(iant
AntState
p110
(dp111
g11
F19.39529014397665
sg12
g13
sg14
(imy_utils
Point
p112
(dp113
g17
F768.7727157038454
sg18
F794.0450620532912
sbsg19
F6.285685107229641
sg20
I00
sg21
I383
sg22
F3.0856286646731093
sg23
I00
sg24
(imy_utils
Point
p114
(dp115
g17
F775.4126628862329
sg18
F755.8270006098943
sbsg27
(lp116
sg29
g30
(g34
S"\x0c'!4\x91P\xef?"
p117
tp118
Rp119
sg41
(imy_utils
Point
p120
(dp121
g17
F772.0926892950391
sg18
F774.9360313315927
sbsg40
F0.17202135253140075
sg44
I8
sg45
I0
sba(iant
AntState
p122
(dp123
g11
F19.455587098359583
sg12
g13
sg14
(imy_utils
Point
p124
(dp125
g17
F766.5838957578784
sg18
F792.7081665513557
sbsg19
F6.249843600579928
sg20
I00
sg21
I382
sg22
F3.1129718344558706
sg23
I00
sg24
(imy_utils
Point
p126
(dp127
g17
F776.0757901059959
sg18
F754.9724617208957
sbsg27
(lp128
sg29
g30
(g34
S'\xa5\x0b\x0cy\x9d_\xef?'
p129
tp130
Rp131
sg41
(imy_utils
Point
p132
(dp133
g17
F771.3298429319372
sg18
F773.8403141361257
sbsg40
F0.246423938873361
sg44
I15
sg45
I0
sba(iant
AntState
p134
(dp135
g11
F19.14176184331258
sg12
g13
sg14
(imy_utils
Point
p136
(dp137
g17
F766.6461471092517
sg18
F790.6740600895823
sbsg19
F4.789174997125929
sg20
I00
sg21
I288
sg22
F3.9968808520882817
sg24
(imy_utils
Point
p138
(dp139
g17
F777.8121862240815
sg18
F754.0551065770844
sbsg29
I0
sg41
(imy_utils
Point
p140
(dp141
g17
F772.2291666666666
sg18
F772.3645833333334
sbsg40
F0.29596911393298736
sg44
I4
sg45
I0
sbatp142
Rp143
sba(iant
Ant
p144
(dp145
g3
F221.76290199999997
sg4
S'Cenek'
p146
sg6
(I0
I191
I255
tp147
sg8
(iant
AntState
p148
(dp149
g11
F17.001793285243814
sg12
g13
sg14
(imy_utils
Point
p150
(dp151
g17
F858.0258756032802
sg18
F585.4307731899188
sbsg19
F4.2873691447215325
sg20
I00
sg21
I229
sg22
F3.965553865632461
sg23
I00
sg24
(imy_utils
Point
p152
(dp153
g17
F891.5505436106937
sg18
F579.7438992991641
sbsg27
(lp154
sg29
g30
(g34
S'\x16\x84Q\xf5\xa6X\xe8?'
p155
tp156
Rp157
sg40
F1.4027633501886076
sg41
(imy_utils
Point
p158
(dp159
g17
F874.7882096069869
sg18
F582.5873362445415
sbsg44
I18
sg45
I0
sbsg46
I2
sg47
g48
((lp160
(iant
AntState
p161
(dp162
g11
F17.24965052960148
sg12
g13
sg14
(imy_utils
Point
p163
(dp164
g17
F856.3970470133189
sg18
F583.2119914840555
sbsg19
F5.314498810489794
sg20
I00
sg21
I288
sg22
F3.2457718299896885
sg23
I00
sg24
(imy_utils
Point
p165
(dp166
g17
F890.0821196533478
sg18
F590.6630085159445
sbsg27
(lp167
sg29
g30
(g34
S'\x8c\x96\xcd\xd9\xbb\x08\xee?'
p168
tp169
Rp170
sg41
(imy_utils
Point
p171
(dp172
g17
F873.2395833333334
sg18
F586.9375
sbsg40
F1.7884875188577507
sg44
I12
sg45
I0
sba(iant
AntState
p173
(dp174
g11
F16.351479871214927
sg12
g13
sg14
(imy_utils
Point
p175
(dp176
g17
F862.2806282924616
sg18
F583.7679317861249
sbsg19
F6.268287895557008
sg20
I00
sg21
I322
sg22
F2.608603839463872
sg23
I00
sg24
(imy_utils
Point
p177
(dp178
g17
F891.4274462417
sg18
F598.5985278412044
sbsg27
(lp179
sg29
g30
(g34
S'\xa3\xf6\xb8\xb0\xb1\xcc\xeb?'
p180
tp181
Rp182
sg41
(imy_utils
Point
p183
(dp184
g17
F876.8540372670808
sg18
F591.1832298136646
sbsg40
F2.041478070221049
sg44
I6
sg45
I0
sba(iant
AntState
p185
(dp186
g11
F17.015567407211538
sg12
g13
sg14
(imy_utils
Point
p187
(dp188
g17
F866.2399806614511
sg18
F585.0496435031235
sbsg19
F4.115535690614386
sg20
I00
sg21
I220
sg22
F4.134472080029848
sg24
(imy_utils
Point
p189
(dp190
g17
F895.3054738840034
sg18
F602.7503564968764
sbsg29
I0
sg41
(imy_utils
Point
p191
(dp192
g17
F880.7727272727273
sg18
F593.9
sbsg40
F2.1178028804234716
sg44
I7
sg45
I0
sbatp193
Rp194
sba(iant
Ant
p195
(dp196
g3
F220.198255
sg4
S'Dusan'
p197
sg6
(I204
I102
I153
tp198
sg8
(iant
AntState
p199
(dp200
g11
F19.084171555824305
sg12
g13
sg14
(imy_utils
Point
p201
(dp202
g17
F637.8793891229874
sg18
F902.360892638555
sbsg19
F6.271402290374964
sg20
I00
sg21
I376
sg22
F3.0430469410507666
sg23
I00
sg24
(imy_utils
Point
p203
(dp204
g17
F674.3493342812679
sg18
F891.1018733188919
sbsg27
(lp205
sg29
g30
(g34
S'5\xeb\xa9\xf0b\xd2\xee?'
p206
tp207
Rp208
sg40
F1.271358408919484
sg41
(imy_utils
Point
p209
(dp210
g17
F656.1143617021277
sg18
F896.7313829787234
sbsg44
I25
sg45
I0
sbsg46
I3
sg47
g48
((lp211
(iant
AntState
p212
(dp213
g11
F18.081292945354
sg12
g13
sg14
(imy_utils
Point
p214
(dp215
g17
F655.7010595872683
sg18
F896.0838150954013
sbsg19
F5.721422318768067
sg20
I00
sg21
I325
sg22
F3.1602793742460973
sg23
I00
sg24
(imy_utils
Point
p216
(dp217
g17
F690.0558634896548
sg18
F884.7931079815218
sbsg27
(lp218
sg29
g30
(g34
S'\x0f\x9b\xdf\xcce\xe0\xe7?'
p219
tp220
Rp221
sg41
(imy_utils
Point
p222
(dp223
g17
F672.8784615384616
sg18
F890.4384615384615
sbsg40
F1.2532666564238413
sg44
I18
sg45
I0
sba(iant
AntState
p224
(dp225
g11
F18.268696622747267
sg12
g13
sg14
(imy_utils
Point
p226
(dp227
g17
F675.5768819658023
sg18
F891.4290961120565
sbsg19
F6.464225128526294
sg20
I00
sg21
I371
sg22
F2.8261232026292595
sg23
I00
sg24
(imy_utils
Point
p228
(dp229
g17
F708.5605843414754
sg18
F875.7110656130109
sbsg27
(lp230
sg29
g30
(g34
S'=\xc2\xda+\x1a\xae\x90?'
p231
tp232
Rp233
sg41
(imy_utils
Point
p234
(dp235
g17
F692.0687331536388
sg18
F883.5700808625337
sbsg40
F1.1260928077653358
sg44
I20
sg45
I0
sba(iant
AntState
p236
(dp237
g11
F17.851090820480735
sg12
g13
sg14
(imy_utils
Point
p238
(dp239
g17
F699.9675474356961
sg18
F880.584533530712
sbsg19
F3.851581738456877
sg20
I00
sg21
I216
sg22
F4.634742823251809
sg24
(imy_utils
Point
p240
(dp241
g17
F730.0694896013408
sg18
F861.3876886915102
sbsg29
I0
sg41
(imy_utils
Point
p242
(dp243
g17
F715.0185185185185
sg18
F870.9861111111111
sbsg40
F1.0030967577551202
sg44
I11
sg45
I0
sbatp244
Rp245
sba(iant
Ant
p246
(dp247
g3
F225.58192600000004
sg4
S'Emil'
p248
sg6
(I117
I149
I105
tp249
sg8
(iant
AntState
p250
(dp251
g11
F18.95992975573564
sg12
g13
sg14
(imy_utils
Point
p252
(dp253
g17
F333.5114637629387
sg18
F775.2279994144104
sbsg19
F5.506647124401882
sg20
I00
sg21
I328
sg22
F3.4430987363830803
sg23
I00
sg24
(imy_utils
Point
p254
(dp255
g17
F357.5007313590125
sg18
F804.5951713172968
sbsg27
(lp256
sg29
g30
(g34
S'\xeey\x95&\xf5\xe4\xeb?'
p257
tp258
Rp259
sg40
F2.456647277614283
sg41
(imy_utils
Point
p260
(dp261
g17
F345.5060975609756
sg18
F789.9115853658536
sbsg44
I12
sg45
I0
sbsg46
I4
sg47
g48
((lp262
(iant
AntState
p263
(dp264
g11
F19.490573740871618
sg12
g13
sg14
(imy_utils
Point
p265
(dp266
g17
F325.5781849239986
sg18
F757.6193475916158
sbsg19
F5.7486804352883905
sg20
I00
sg21
I352
sg22
F3.390443069548333
sg23
I00
sg24
(imy_utils
Point
p267
(dp268
g17
F340.8934059850923
sg18
F793.4658796811115
sbsg27
(lp269
sg29
g30
(g34
S'|\x88\xd2\xe5\xdcs\xee?'
p270
tp271
Rp272
sg41
(imy_utils
Point
p273
(dp274
g17
F333.23579545454544
sg18
F775.5426136363636
sbsg40
F2.737822729211196
sg44
I5
sg45
I0
sba(iant
AntState
p275
(dp276
g11
F18.45163590014299
sg12
g13
sg14
(imy_utils
Point
p277
(dp278
g17
F309.2474322148147
sg18
F742.7228674817975
sbsg19
F4.295508652387274
sg20
I00
sg21
I249
sg22
F4.295564831393903
sg23
I00
sg24
(imy_utils
Point
p279
(dp280
g17
F330.73248746390016
sg18
F772.7269317149896
sbsg27
(lp281
sg29
g30
(g34
S'@Z\x08\xe9R\xdd\xa8?'
p282
tp283
Rp284
sg41
(imy_utils
Point
p285
(dp286
g17
F319.9899598393574
sg18
F757.7248995983936
sbsg40
F2.5201616870554915
sg44
I8
sg45
I0
sba(iant
AntState
p287
(dp288
g11
F18.724776251206023
sg12
g13
sg14
(imy_utils
Point
p289
(dp290
g17
F296.1210033965462
sg18
F724.403368902147
sbsg19
F3.7908653041669025
sg20
I00
sg21
I223
sg22
F4.939446471660133
sg24
(imy_utils
Point
p291
(dp292
g17
F314.76240467520273
sg18
F756.883626613548
sbsg29
I0
sg41
(imy_utils
Point
p293
(dp294
g17
F305.44170403587447
sg18
F740.6434977578475
sbsg40
F2.6205627175535424
sg44
I16
sg45
I0
sbatp295
Rp296
sba(iant
Ant
p297
(dp298
g3
F225.97691700000001
sg4
S'Ferda'
p299
sg6
(I0
I182
I141
tp300
sg8
(iant
AntState
p301
(dp302
g11
F16.942269808334608
sg12
g13
sg14
(imy_utils
Point
p303
(dp304
g17
F749.5829279888665
sg18
F371.54122483603487
sbsg19
F3.9454616680530123
sg20
I00
sg21
I210
sg22
F4.294115932114783
sg23
I00
sg24
(imy_utils
Point
p305
(dp306
g17
F754.3599291539906
sg18
F405.0873465925365
sbsg27
(lp307
sg29
g30
(g34
S'(;\x93V\x9e\xe5\xef?'
p308
tp309
Rp310
sg40
F3.0001426509848264
sg41
(imy_utils
Point
p311
(dp312
g17
F751.9714285714285
sg18
F388.3142857142857
sbsg44
I26
sg45
I0
sbsg46
I5
sg47
g48
((lp313
(iant
AntState
p314
(dp315
g11
F16.820507491976187
sg12
g13
sg14
(imy_utils
Point
p316
(dp317
g17
F749.4888742841737
sg18
F370.49818780949846
sbsg19
F4.220033471216375
sg20
I00
sg21
I223
sg22
F3.985870635080028
sg23
I00
sg24
(imy_utils
Point
p318
(dp319
g17
F754.8295113660505
sg18
F403.71257452234005
sbsg27
(lp320
sg29
g30
(g34
S'\x89\x16\xb5\xea$\x86\xef?'
p321
tp322
Rp323
sg41
(imy_utils
Point
p324
(dp325
g17
F752.1591928251121
sg18
F387.10538116591925
sbsg40
F2.982164392822474
sg44
I23
sg45
I0
sba(iant
AntState
p326
(dp327
g11
F16.352290206289208
sg12
g13
sg14
(imy_utils
Point
p328
(dp329
g17
F748.2260040459579
sg18
F370.6865378119189
sbsg19
F4.730181605565687
sg20
I00
sg21
I243
sg22
F3.4570110769211406
sg23
I00
sg24
(imy_utils
Point
p330
(dp331
g17
F757.5229671474577
sg18
F402.0418572498095
sbsg27
(lp332
sg29
g30
(g34
S'\xf0&\x8bQ\x1c\xbe\xee?'
p333
tp334
Rp335
sg41
(imy_utils
Point
p336
(dp337
g17
F752.8744855967078
sg18
F386.3641975308642
sbsg40
F2.853346702654182
sg44
I25
sg45
I0
sba(iant
AntState
p338
(dp339
g11
F15.534054363893183
sg12
g13
sg14
(imy_utils
Point
p340
(dp341
g17
F746.7801942651962
sg18
F372.2987044767226
sbsg19
F4.6309889609210435
sg20
I00
sg21
I226
sg22
F3.3543708471297373
sg24
(imy_utils
Point
p342
(dp343
g17
F761.3702482126799
sg18
F399.7278441958438
sbsg29
I0
sg41
(imy_utils
Point
p344
(dp345
g17
F754.0752212389381
sg18
F386.0132743362832
sbsg40
F2.652737855037739
sg44
I21
sg45
I0
sbatp346
Rp347
sba(iant
Ant
p348
(dp349
g3
F256.132046
sg4
S'Gustav'
p350
sg6
(I255
I255
I0
tp351
sg8
(iant
AntState
p352
(dp353
g11
F18.330659408004962
sg12
g13
sg14
(imy_utils
Point
p354
(dp355
g17
F268.4863874502564
sg18
F520.3336568665767
sbsg19
F4.098114064929347
sg20
I00
sg21
I236
sg22
F4.472950024713621
sg23
I00
sg24
(imy_utils
Point
p356
(dp357
g17
F288.2678498378792
sg18
F551.200241438508
sbsg27
(lp358
sg29
g30
(g34
S"\x1e\x19)\x9b\n'\xe7?"
p359
tp360
Rp361
sg40
F2.571662640043668
sg41
(imy_utils
Point
p362
(dp363
g17
F278.3771186440678
sg18
F535.7669491525423
sbsg44
I15
sg45
I0
sbsg46
I6
sg47
g48
((lp364
(iant
AntState
p365
(dp366
g11
F17.27583720187974
sg12
g13
sg14
(imy_utils
Point
p367
(dp368
g17
F260.1535108190309
sg18
F526.5453304148796
sbsg19
F6.319826338092637
sg20
I00
sg21
I343
sg22
F2.733593658697542
sg23
I00
sg24
(imy_utils
Point
p369
(dp370
g17
F287.69780113432194
sg18
F547.4051069029047
sbsg27
(lp371
sg29
g30
(g34
S'f\xb6]\xaf+\xd6\x98?'
p372
tp373
Rp374
sg41
(imy_utils
Point
p375
(dp376
g17
F273.9256559766764
sg18
F536.9752186588921
sbsg40
F2.218964288623329
sg44
I21
sg45
I0
sba(iant
AntState
p377
(dp378
g11
F19.165482862003802
sg12
g13
sg14
(imy_utils
Point
p379
(dp380
g17
F258.39606450667225
sg18
F531.1189849638658
sbsg19
F4.999157935711079
sg20
I00
sg21
I301
sg22
F3.833742223884693
sg23
I00
sg24
(imy_utils
Point
p381
(dp382
g17
F292.3580883172481
sg18
F548.8909818135428
sbsg27
(lp383
sg29
g30
(g34
S'\xfd\xd3l5\x8d\xfc\x83?'
p384
tp385
Rp386
sg41
(imy_utils
Point
p387
(dp388
g17
F275.37707641196016
sg18
F540.0049833887043
sbsg40
F2.0529020832367744
sg44
I23
sg45
I0
sba(iant
AntState
p389
(dp390
g11
F19.724525838279405
sg12
g13
sg14
(imy_utils
Point
p391
(dp392
g17
F284.7401281961283
sg18
F540.7283482201275
sbsg19
F4.115131671218267
sg20
I00
sg21
I255
sg22
F4.79317004027724
sg24
(imy_utils
Point
p393
(dp394
g17
F312.9971267058325
sg18
F568.2559655053627
sbsg29
I0
sg41
(imy_utils
Point
p395
(dp396
g17
F298.8686274509804
sg18
F554.4921568627451
sbsg40
F2.3431202822822073
sg44
I26
sg45
I0
sbatp397
Rp398
sba(iant
Ant
p399
(dp400
g3
F233.296838
sg4
S'Hugo'
p401
sg6
(I32
I83
I78
tp402
sg8
(iant
AntState
p403
(dp404
g11
F19.514216371866944
sg12
g13
sg14
(imy_utils
Point
p405
(dp406
g17
F599.114986673044
sg18
F428.92836565357993
sbsg19
F6.002702639113367
sg20
I00
sg21
I368
sg22
F3.2509050581171723
sg23
I00
sg24
(imy_utils
Point
p407
(dp408
g17
F611.9991437617385
sg18
F392.0879386942462
sbsg27
(lp409
sg29
g30
(g34
S'\x92(cw\x9b{\xe9?'
p410
tp411
Rp412
sg40
F0.3364331658097676
sg41
(imy_utils
Point
p413
(dp414
g17
F605.5570652173913
sg18
F410.50815217391306
sbsg44
I5
sg45
I0
sbsg46
I7
sg47
g48
((lp415
(iant
AntState
p416
(dp417
g11
F19.685467357604068
sg12
g13
sg14
(imy_utils
Point
p418
(dp419
g17
F596.5363523374186
sg18
F427.7028150571931
sbsg19
F6.241539194114289
sg20
I00
sg21
I386
sg22
F3.153944362981374
sg23
I01
sg24
(imy_utils
Point
p420
(dp421
g17
F608.2201243465191
sg18
F390.1054750982473
sbsg27
(lp422
sg29
g30
(g34
S'\x95\xb0"ES\x89\\?'
p423
tp424
Rp425
sg41
(imy_utils
Point
p426
(dp427
g17
F602.3782383419689
sg18
F408.9041450777202
sbsg40
F0.3012994375445085
sg44
I16
sg45
I0
sba(iant
AntState
p428
(dp429
g11
F19.405002597382403
sg12
g13
sg14
(imy_utils
Point
p430
(dp431
g17
F604.3184182811833
sg18
F384.612888178946
sbsg19
F6.020083101932144
sg20
I00
sg21
I367
sg22
F3.2233778618694435
sg23
I00
sg24
(imy_utils
Point
p432
(dp433
g17
F604.4853964327131
sg18
F423.4225341643783
sbsg27
(lp434
(I0
F19.905782993074347
g64
tp435
asg29
g30
(g34
S'P\x83\x8azf\xef\xdf?'
p436
tp437
Rp438
sg41
(imy_utils
Point
p439
(dp440
g17
F604.4019073569482
sg18
F404.01771117166214
sbsg40
F3.137290189164606
sg44
I12
sg45
I0
sba(iant
AntState
p441
(dp442
g11
F18.422223847038033
sg12
g13
sg14
(imy_utils
Point
p443
(dp444
g17
F600.0244198884478
sg18
F375.6113646646535
sbsg19
F3.9567950395851885
sg20
I00
sg21
I229
sg22
F4.6558448599777185
sg24
(imy_utils
Point
p445
(dp446
g17
F608.3904272731241
sg18
F411.49343882879634
sbsg29
I0
sg41
(imy_utils
Point
p447
(dp448
g17
F604.207423580786
sg18
F393.5524017467249
sbsg40
F2.9125319039701107
sg44
I29
sg45
I0
sbatp449
Rp450
sba.