(lp0
(iant
Ant
p1
(dp2
S'area_weighted'
p3
F295.84340000000003
sS'name'
p4
S'Arnold'
p5
sS'color'
p6
(I145
I95
I22
tp7
sS'state'
p8
(iant
AntState
p9
(dp10
S'a'
p11
F18.16548076690474
sS'info'
p12
S''
p13
sS'head'
p14
(imy_utils
Point
p15
(dp16
S'y'
p17
F545.2518538108126
sS'x'
p18
F415.9609055019423
sbsS'b'
p19
F5.502155739461933
sS'lost'
p20
I00
sS'area'
p21
I314
sS'axis_ratio'
p22
F3.301520645193729
sS'collision_predicted'
p23
I01
sS'back'
p24
(imy_utils
Point
p25
(dp26
g17
F581.5570633866397
sg18
F414.59323462544626
sbsS'collisions'
p27
(lp28
(I7
F19.905782993074347
cnumpy.core.multiarray
scalar
p29
(cnumpy
dtype
p30
(S'i8'
p31
I0
I1
tp32
Rp33
(I3
S'<'
p34
NNNI-1
I-1
I0
tp35
bS'\x06\x00\x00\x00\x00\x00\x00\x00'
p36
tp37
Rp38
tp39
asS'score'
p40
g29
(g30
(S'f8'
p41
I0
I1
tp42
Rp43
(I3
S'<'
p44
NNNI-1
I-1
I0
tp45
bS'\xd0r\x93z\xb9\x95\xef?'
p46
tp47
Rp48
sS'theta'
p49
F1.5331426547583764
sS'position'
p50
(imy_utils
Point
p51
(dp52
g17
F563.4044585987261
sg18
F415.2770700636943
sbsS'mser_id'
p53
I0
sS'lost_time'
p54
I0
sbsS'id'
p55
I0
sS'history'
p56
ccollections
deque
p57
((lp58
(iant
AntState
p59
(dp60
g11
F17.88490374052986
sg12
g13
sg14
(imy_utils
Point
p61
(dp62
g17
F546.8258287906285
sg18
F413.5946550052728
sbsg19
F4.662993516211255
sg20
I00
sg21
I262
sg22
F3.835498307761231
sg23
I00
sg24
(imy_utils
Point
p63
(dp64
g17
F582.5482170108983
sg18
F415.4358793458723
sbsg27
(lp65
sg40
g29
(g43
S')\xdct\xa2\xc1\xd1\xef?'
p66
tp67
Rp68
sg50
(imy_utils
Point
p69
(dp70
g17
F564.6870229007634
sg18
F414.51526717557255
sbsg49
F1.6222933441337424
sg53
I0
sg54
I0
sba(iant
AntState
p71
(dp72
g11
F18.321852799321075
sg12
g13
sg14
(imy_utils
Point
p73
(dp74
g17
F546.727808903749
sg18
F411.77701423546415
sbsg19
F5.142478074809847
sg20
I00
sg21
I296
sg22
F3.562845097788494
sg24
(imy_utils
Point
p75
(dp76
g17
F583.1032721773321
sg18
F416.20271549426553
sbsg40
I0
sg50
(imy_utils
Point
p77
(dp78
g17
F564.9155405405405
sg18
F413.98986486486484
sbsg49
F1.6918684737487757
sg53
I0
sg54
I0
sbatp79
Rp80
sba(iant
Ant
p81
(dp82
g3
F289.88059999999996
sg4
S'Bob'
p83
sg6
(I54
I38
I227
tp84
sg8
(iant
AntState
p85
(dp86
g11
F19.39529014397665
sg12
g13
sg14
(imy_utils
Point
p87
(dp88
g17
F768.7727157038454
sg18
F794.0450620532912
sbsg19
F6.285685107229641
sg20
I00
sg21
I383
sg22
F3.0856286646731093
sg23
I00
sg24
(imy_utils
Point
p89
(dp90
g17
F775.4126628862329
sg18
F755.8270006098943
sbsg27
(lp91
sg40
g29
(g43
S"\x0c'!4\x91P\xef?"
p92
tp93
Rp94
sg49
F0.17202135253140075
sg50
(imy_utils
Point
p95
(dp96
g17
F772.0926892950391
sg18
F774.9360313315927
sbsg53
I8
sg54
I0
sbsg55
I1
sg56
g57
((lp97
(iant
AntState
p98
(dp99
g11
F19.455587098359583
sg12
g13
sg14
(imy_utils
Point
p100
(dp101
g17
F766.5838957578784
sg18
F792.7081665513557
sbsg19
F6.249843600579928
sg20
I00
sg21
I382
sg22
F3.1129718344558706
sg23
I00
sg24
(imy_utils
Point
p102
(dp103
g17
F776.0757901059959
sg18
F754.9724617208957
sbsg27
(lp104
sg40
g29
(g43
S'\xa5\x0b\x0cy\x9d_\xef?'
p105
tp106
Rp107
sg50
(imy_utils
Point
p108
(dp109
g17
F771.3298429319372
sg18
F773.8403141361257
sbsg49
F0.246423938873361
sg53
I15
sg54
I0
sba(iant
AntState
p110
(dp111
g11
F19.14176184331258
sg12
g13
sg14
(imy_utils
Point
p112
(dp113
g17
F766.6461471092517
sg18
F790.6740600895823
sbsg19
F4.789174997125929
sg20
I00
sg21
I288
sg22
F3.9968808520882817
sg24
(imy_utils
Point
p114
(dp115
g17
F777.8121862240815
sg18
F754.0551065770844
sbsg40
I0
sg50
(imy_utils
Point
p116
(dp117
g17
F772.2291666666666
sg18
F772.3645833333334
sbsg49
F0.29596911393298736
sg53
I4
sg54
I0
sbatp118
Rp119
sba(iant
Ant
p120
(dp121
g3
F221.6898
sg4
S'Cenek'
p122
sg6
(I0
I191
I255
tp123
sg8
(iant
AntState
p124
(dp125
g11
F17.24965052960148
sg12
g13
sg14
(imy_utils
Point
p126
(dp127
g17
F856.3970470133189
sg18
F583.2119914840555
sbsg19
F5.314498810489794
sg20
I00
sg21
I288
sg22
F3.2457718299896885
sg23
I00
sg24
(imy_utils
Point
p128
(dp129
g17
F890.0821196533478
sg18
F590.6630085159445
sbsg27
(lp130
sg40
g29
(g43
S'\x8c\x96\xcd\xd9\xbb\x08\xee?'
p131
tp132
Rp133
sg49
F1.7884875188577507
sg50
(imy_utils
Point
p134
(dp135
g17
F873.2395833333334
sg18
F586.9375
sbsg53
I12
sg54
I0
sbsg55
I2
sg56
g57
((lp136
(iant
AntState
p137
(dp138
g11
F16.351479871214927
sg12
g13
sg14
(imy_utils
Point
p139
(dp140
g17
F862.2806282924616
sg18
F583.7679317861249
sbsg19
F6.268287895557008
sg20
I00
sg21
I322
sg22
F2.608603839463872
sg23
I00
sg24
(imy_utils
Point
p141
(dp142
g17
F891.4274462417
sg18
F598.5985278412044
sbsg27
(lp143
sg40
g29
(g43
S'\xa3\xf6\xb8\xb0\xb1\xcc\xeb?'
p144
tp145
Rp146
sg50
(imy_utils
Point
p147
(dp148
g17
F876.8540372670808
sg18
F591.1832298136646
sbsg49
F2.041478070221049
sg53
I6
sg54
I0
sba(iant
AntState
p149
(dp150
g11
F17.015567407211538
sg12
g13
sg14
(imy_utils
Point
p151
(dp152
g17
F866.2399806614511
sg18
F585.0496435031235
sbsg19
F4.115535690614386
sg20
I00
sg21
I220
sg22
F4.134472080029848
sg24
(imy_utils
Point
p153
(dp154
g17
F895.3054738840034
sg18
F602.7503564968764
sbsg40
I0
sg50
(imy_utils
Point
p155
(dp156
g17
F880.7727272727273
sg18
F593.9
sbsg49
F2.1178028804234716
sg53
I7
sg54
I0
sbatp157
Rp158
sba(iant
Ant
p159
(dp160
g3
F218.6245
sg4
S'Dusan'
p161
sg6
(I204
I102
I153
tp162
sg8
(iant
AntState
p163
(dp164
g11
F18.081292945354
sg12
g13
sg14
(imy_utils
Point
p165
(dp166
g17
F655.7010595872683
sg18
F896.0838150954013
sbsg19
F5.721422318768067
sg20
I00
sg21
I325
sg22
F3.1602793742460973
sg23
I00
sg24
(imy_utils
Point
p167
(dp168
g17
F690.0558634896548
sg18
F884.7931079815218
sbsg27
(lp169
sg40
g29
(g43
S'\x0f\x9b\xdf\xcce\xe0\xe7?'
p170
tp171
Rp172
sg49
F1.2532666564238413
sg50
(imy_utils
Point
p173
(dp174
g17
F672.8784615384616
sg18
F890.4384615384615
sbsg53
I18
sg54
I0
sbsg55
I3
sg56
g57
((lp175
(iant
AntState
p176
(dp177
g11
F18.268696622747267
sg12
g13
sg14
(imy_utils
Point
p178
(dp179
g17
F675.5768819658023
sg18
F891.4290961120565
sbsg19
F6.464225128526294
sg20
I00
sg21
I371
sg22
F2.8261232026292595
sg23
I00
sg24
(imy_utils
Point
p180
(dp181
g17
F708.5605843414754
sg18
F875.7110656130109
sbsg27
(lp182
sg40
g29
(g43
S'=\xc2\xda+\x1a\xae\x90?'
p183
tp184
Rp185
sg50
(imy_utils
Point
p186
(dp187
g17
F692.0687331536388
sg18
F883.5700808625337
sbsg49
F1.1260928077653358
sg53
I20
sg54
I0
sba(iant
AntState
p188
(dp189
g11
F17.851090820480735
sg12
g13
sg14
(imy_utils
Point
p190
(dp191
g17
F699.9675474356961
sg18
F880.584533530712
sbsg19
F3.851581738456877
sg20
I00
sg21
I216
sg22
F4.634742823251809
sg24
(imy_utils
Point
p192
(dp193
g17
F730.0694896013408
sg18
F861.3876886915102
sbsg40
I0
sg50
(imy_utils
Point
p194
(dp195
g17
F715.0185185185185
sg18
F870.9861111111111
sbsg49
F1.0030967577551202
sg53
I11
sg54
I0
sbatp196
Rp197
sba(iant
Ant
p198
(dp199
g3
F224.54740000000004
sg4
S'Emil'
p200
sg6
(I117
I149
I105
tp201
sg8
(iant
AntState
p202
(dp203
g11
F19.490573740871618
sg12
g13
sg14
(imy_utils
Point
p204
(dp205
g17
F325.5781849239986
sg18
F757.6193475916158
sbsg19
F5.7486804352883905
sg20
I00
sg21
I352
sg22
F3.390443069548333
sg23
I00
sg24
(imy_utils
Point
p206
(dp207
g17
F340.8934059850923
sg18
F793.4658796811115
sbsg27
(lp208
sg40
g29
(g43
S'|\x88\xd2\xe5\xdcs\xee?'
p209
tp210
Rp211
sg49
F2.737822729211196
sg50
(imy_utils
Point
p212
(dp213
g17
F333.23579545454544
sg18
F775.5426136363636
sbsg53
I5
sg54
I0
sbsg55
I4
sg56
g57
((lp214
(iant
AntState
p215
(dp216
g11
F18.45163590014299
sg12
g13
sg14
(imy_utils
Point
p217
(dp218
g17
F309.2474322148147
sg18
F742.7228674817975
sbsg19
F4.295508652387274
sg20
I00
sg21
I249
sg22
F4.295564831393903
sg23
I00
sg24
(imy_utils
Point
p219
(dp220
g17
F330.73248746390016
sg18
F772.7269317149896
sbsg27
(lp221
sg40
g29
(g43
S'@Z\x08\xe9R\xdd\xa8?'
p222
tp223
Rp224
sg50
(imy_utils
Point
p225
(dp226
g17
F319.9899598393574
sg18
F757.7248995983936
sbsg49
F2.5201616870554915
sg53
I8
sg54
I0
sba(iant
AntState
p227
(dp228
g11
F18.724776251206023
sg12
g13
sg14
(imy_utils
Point
p229
(dp230
g17
F296.1210033965462
sg18
F724.403368902147
sbsg19
F3.7908653041669025
sg20
I00
sg21
I223
sg22
F4.939446471660133
sg24
(imy_utils
Point
p231
(dp232
g17
F314.76240467520273
sg18
F756.883626613548
sbsg40
I0
sg50
(imy_utils
Point
p233
(dp234
g17
F305.44170403587447
sg18
F740.6434977578475
sbsg49
F2.6205627175535424
sg53
I16
sg54
I0
sbatp235
Rp236
sba(iant
Ant
p237
(dp238
g3
F226.13830000000002
sg4
S'Ferda'
p239
sg6
(I0
I182
I141
tp240
sg8
(iant
AntState
p241
(dp242
g11
F16.820507491976187
sg12
g13
sg14
(imy_utils
Point
p243
(dp244
g17
F749.4888742841737
sg18
F370.49818780949846
sbsg19
F4.220033471216375
sg20
I00
sg21
I223
sg22
F3.985870635080028
sg23
I00
sg24
(imy_utils
Point
p245
(dp246
g17
F754.8295113660505
sg18
F403.71257452234005
sbsg27
(lp247
sg40
g29
(g43
S'\x89\x16\xb5\xea$\x86\xef?'
p248
tp249
Rp250
sg49
F2.982164392822474
sg50
(imy_utils
Point
p251
(dp252
g17
F752.1591928251121
sg18
F387.10538116591925
sbsg53
I23
sg54
I0
sbsg55
I5
sg56
g57
((lp253
(iant
AntState
p254
(dp255
g11
F16.352290206289208
sg12
g13
sg14
(imy_utils
Point
p256
(dp257
g17
F748.2260040459579
sg18
F370.6865378119189
sbsg19
F4.730181605565687
sg20
I00
sg21
I243
sg22
F3.4570110769211406
sg23
I00
sg24
(imy_utils
Point
p258
(dp259
g17
F757.5229671474577
sg18
F402.0418572498095
sbsg27
(lp260
sg40
g29
(g43
S'\xf0&\x8bQ\x1c\xbe\xee?'
p261
tp262
Rp263
sg50
(imy_utils
Point
p264
(dp265
g17
F752.8744855967078
sg18
F386.3641975308642
sbsg49
F2.853346702654182
sg53
I25
sg54
I0
sba(iant
AntState
p266
(dp267
g11
F15.534054363893183
sg12
g13
sg14
(imy_utils
Point
p268
(dp269
g17
F746.7801942651962
sg18
F372.2987044767226
sbsg19
F4.6309889609210435
sg20
I00
sg21
I226
sg22
F3.3543708471297373
sg24
(imy_utils
Point
p270
(dp271
g17
F761.3702482126799
sg18
F399.7278441958438
sbsg40
I0
sg50
(imy_utils
Point
p272
(dp273
g17
F754.0752212389381
sg18
F386.0132743362832
sbsg49
F2.652737855037739
sg53
I21
sg54
I0
sbatp274
Rp275
sba(iant
Ant
p276
(dp277
g3
F256.3354
sg4
S'Gustav'
p278
sg6
(I255
I255
I0
tp279
sg8
(iant
AntState
p280
(dp281
g11
F17.27583720187974
sg12
g13
sg14
(imy_utils
Point
p282
(dp283
g17
F260.1535108190309
sg18
F526.5453304148796
sbsg19
F6.319826338092637
sg20
I00
sg21
I343
sg22
F2.733593658697542
sg23
I00
sg24
(imy_utils
Point
p284
(dp285
g17
F287.69780113432194
sg18
F547.4051069029047
sbsg27
(lp286
sg40
g29
(g43
S'f\xb6]\xaf+\xd6\x98?'
p287
tp288
Rp289
sg49
F2.218964288623329
sg50
(imy_utils
Point
p290
(dp291
g17
F273.9256559766764
sg18
F536.9752186588921
sbsg53
I21
sg54
I0
sbsg55
I6
sg56
g57
((lp292
(iant
AntState
p293
(dp294
g11
F19.165482862003802
sg12
g13
sg14
(imy_utils
Point
p295
(dp296
g17
F258.39606450667225
sg18
F531.1189849638658
sbsg19
F4.999157935711079
sg20
I00
sg21
I301
sg22
F3.833742223884693
sg23
I00
sg24
(imy_utils
Point
p297
(dp298
g17
F292.3580883172481
sg18
F548.8909818135428
sbsg27
(lp299
sg40
g29
(g43
S'\xfd\xd3l5\x8d\xfc\x83?'
p300
tp301
Rp302
sg50
(imy_utils
Point
p303
(dp304
g17
F275.37707641196016
sg18
F540.0049833887043
sbsg49
F2.0529020832367744
sg53
I23
sg54
I0
sba(iant
AntState
p305
(dp306
g11
F19.724525838279405
sg12
g13
sg14
(imy_utils
Point
p307
(dp308
g17
F284.7401281961283
sg18
F540.7283482201275
sbsg19
F4.115131671218267
sg20
I00
sg21
I255
sg22
F4.79317004027724
sg24
(imy_utils
Point
p309
(dp310
g17
F312.9971267058325
sg18
F568.2559655053627
sbsg40
I0
sg50
(imy_utils
Point
p311
(dp312
g17
F298.8686274509804
sg18
F554.4921568627451
sbsg49
F2.3431202822822073
sg53
I26
sg54
I0
sbatp313
Rp314
sba(iant
Ant
p315
(dp316
g3
F231.9362
sg4
S'Hugo'
p317
sg6
(I32
I83
I78
tp318
sg8
(iant
AntState
p319
(dp320
g11
F19.685467357604068
sg12
g13
sg14
(imy_utils
Point
p321
(dp322
g17
F596.5363523374186
sg18
F427.7028150571931
sbsg19
F6.241539194114289
sg20
I00
sg21
I386
sg22
F3.153944362981374
sg23
I01
sg24
(imy_utils
Point
p323
(dp324
g17
F608.2201243465191
sg18
F390.1054750982473
sbsg27
(lp325
sg40
g29
(g43
S'\x95\xb0"ES\x89\\?'
p326
tp327
Rp328
sg49
F0.3012994375445085
sg50
(imy_utils
Point
p329
(dp330
g17
F602.3782383419689
sg18
F408.9041450777202
sbsg53
I16
sg54
I0
sbsg55
I7
sg56
g57
((lp331
(iant
AntState
p332
(dp333
g11
F19.405002597382403
sg12
g13
sg14
(imy_utils
Point
p334
(dp335
g17
F604.3184182811833
sg18
F384.612888178946
sbsg19
F6.020083101932144
sg20
I00
sg21
I367
sg22
F3.2233778618694435
sg23
I00
sg24
(imy_utils
Point
p336
(dp337
g17
F604.4853964327131
sg18
F423.4225341643783
sbsg27
(lp338
(I0
F19.905782993074347
g38
tp339
asg40
g29
(g43
S'P\x83\x8azf\xef\xdf?'
p340
tp341
Rp342
sg50
(imy_utils
Point
p343
(dp344
g17
F604.4019073569482
sg18
F404.01771117166214
sbsg49
F3.137290189164606
sg53
I12
sg54
I0
sba(iant
AntState
p345
(dp346
g11
F18.422223847038033
sg12
g13
sg14
(imy_utils
Point
p347
(dp348
g17
F600.0244198884478
sg18
F375.6113646646535
sbsg19
F3.9567950395851885
sg20
I00
sg21
I229
sg22
F4.6558448599777185
sg24
(imy_utils
Point
p349
(dp350
g17
F608.3904272731241
sg18
F411.49343882879634
sbsg40
I0
sg50
(imy_utils
Point
p351
(dp352
g17
F604.207423580786
sg18
F393.5524017467249
sbsg49
F2.9125319039701107
sg53
I29
sg54
I0
sbatp353
Rp354
sba.