(dp0
S'motp'
p1
cnumpy.core.multiarray
scalar
p2
(cnumpy
dtype
p3
(S'f8'
p4
I0
I1
tp5
Rp6
(I3
S'<'
p7
NNNI-1
I-1
I0
tp8
bS'\x0f}\x0b\x82\x9f|\xeb?'
p9
tp10
Rp11
sS'mota'
p12
F0.9974959493297982
sS'mismatches'
p13
I9
sS'fp'
p14
I38
sS'object_count'
p15
I33945
sS'matches_count'
p16
I33907
sS'problematic_frames'
p17
S'undefined'
p18
sS'fn'
p19
I38
s.