((dp1
S'Sowbug3'
p2
((lp3
I849
aI939
aI936
aI902
aI890
aI888
aI886
aI918
aI916
aI908
aI930
aI922
aI912
aI864
aI767
a(lp4
I122
aI30
aI31
aI63
aI73
aI73
aI73
aI39
aI38
aI43
aI16
aI14
aI14
aI12
aI9
atp5
sS'Cam1'
p6
((lp7
I3716
aI4073
aI4431
aI4429
aI4483
aI4595
aI4058
aI4153
aI4675
aI4672
aI4799
aI4908
aI4945
aI5015
aI4818
a(lp8
I1486
aI1127
aI767
aI767
aI711
aI597
aI1132
aI1035
aI510
aI510
aI378
aI259
aI212
aI92
aI189
atp9
sS'Ns'
p10
(lp11
I5
aI7
aI9
aI11
aI13
aI15
aI17
aI19
aI22
aI25
aI30
aI40
aI50
aI100
aI200
asS'Camera3'
p12
((lp13
I401
aI399
aI407
aI859
aI857
aI835
aI833
aI831
aI792
aI789
aI784
aI872
aI862
aI780
aI696
a(lp14
I539
aI539
aI529
aI75
aI75
aI95
aI95
aI95
aI131
aI131
aI131
aI33
aI33
aI65
aI49
atp15
sS'Zebrafish'
p16
((lp17
I972
aI970
aI973
aI960
aI965
aI963
aI962
aI961
aI961
aI958
aI953
aI945
aI935
aI884
aI785
a(lp18
I8
aI8
aI3
aI14
aI7
aI7
aI6
aI5
aI2
aI2
aI2
aI0
aI0
aI1
aI0
atp19
s(lp20
I0
aI1
aI2
aI3
aI5
aI6
at.