((dp1
S'Sowbug3'
p2
((lp3
I910
aI884
aI928
aI935
aI933
aI931
aI929
aI901
aI923
aI915
aI927
aI918
aI912
aI867
aI766
a(lp4
I61
aI85
aI39
aI30
aI30
aI30
aI30
aI56
aI31
aI36
aI19
aI18
aI14
aI9
aI10
atp5
sS'Cam1'
p6
((lp7
I3696
aI4065
aI3051
aI3503
aI3498
aI3496
aI3494
aI4769
aI4780
aI4777
aI4792
aI4930
aI4994
aI4947
aI4887
a(lp8
I1506
aI1135
aI2147
aI1693
aI1696
aI1696
aI1696
aI419
aI405
aI405
aI385
aI237
aI163
aI160
aI120
atp9
sS'Ns'
p10
(lp11
I5
aI7
aI9
aI11
aI13
aI15
aI17
aI19
aI22
aI25
aI30
aI40
aI50
aI100
aI200
asS'Camera3'
p12
((lp13
I401
aI409
aI407
aI867
aI821
aI819
aI817
aI891
aI829
aI826
aI821
aI856
aI858
aI821
aI728
a(lp14
I539
aI529
aI529
aI67
aI111
aI111
aI111
aI35
aI94
aI94
aI94
aI49
aI37
aI24
aI17
atp15
sS'Zebrafish'
p16
((lp17
I953
aI967
aI968
aI967
aI965
aI966
aI964
aI956
aI953
aI950
aI944
aI941
aI933
aI884
aI784
a(lp18
I27
aI11
aI8
aI7
aI7
aI4
aI4
aI10
aI10
aI10
aI11
aI4
aI2
aI1
aI1
atp19
s(lp20
I0
aI1
aI2
aI3
aI4
aI5
aI6
at.