(dp1
S'Sowbug3'
p2
((lp3
I885
aI931
aI926
aI956
aI951
aI941
aI919
aI911
aI894
aI874
aI821
aI771
a(lp4
I101
aI50
aI50
aI15
aI15
aI20
aI32
aI30
aI22
aI17
aI20
aI20
atp5
sS'Cam1'
p6
((lp7
I3748
aI4169
aI4719
aI4764
aI4779
aI4764
aI4819
aI4823
aI4790
aI4875
aI4934
aI4937
a(lp8
I1501
aI1075
aI520
aI470
aI450
aI460
aI395
aI381
aI389
aI279
aI170
aI117
atp9
sS'Ns'
p10
(lp11
I5
aI10
aI15
aI20
aI25
aI30
aI40
aI50
aI75
aI100
aI150
aI200
asS'Camera3'
p12
((lp13
I402
aI855
aI893
aI849
aI844
aI860
aI852
aI853
aI809
aI796
aI765
aI708
a(lp14
I540
aI82
aI39
aI78
aI78
aI57
aI55
aI44
aI63
aI51
aI32
aI39
atp15
sS'Zebrafish'
p16
((lp17
I795
aI982
aI976
aI967
aI962
aI959
aI950
aI941
aI916
aI893
aI843
aI793
a(lp18
I194
aI2
aI3
aI7
aI7
aI5
aI4
aI3
aI3
aI1
aI1
aI1
atp19
s.