((dp1
S'Sowbug3'
p2
((lp3
I931
aI940
aI938
aI946
aI944
aI944
aI940
aI938
aI928
aI925
aI931
aI927
aI917
aI866
aI770
a(lp4
I40
aI29
aI29
aI19
aI19
aI17
aI19
aI19
aI26
aI26
aI15
aI9
aI9
aI10
aI10
atp5
sS'Cam1'
p6
((lp7
I3734
aI4272
aI4551
aI4560
aI4558
aI4659
aI4901
aI4835
aI4832
aI4829
aI4824
aI4815
aI4982
aI4881
aI4874
a(lp8
I1468
aI928
aI647
aI636
aI636
aI533
aI289
aI353
aI353
aI353
aI353
aI352
aI175
aI226
aI133
atp9
sS'Ns'
p10
(lp11
I5
aI7
aI9
aI11
aI13
aI15
aI17
aI19
aI22
aI25
aI30
aI40
aI50
aI100
aI200
asS'Camera3'
p12
((lp13
I401
aI399
aI358
aI356
aI377
aI385
aI383
aI381
aI378
aI875
aI870
aI860
aI864
aI788
aI716
a(lp14
I539
aI539
aI578
aI578
aI555
aI545
aI545
aI545
aI545
aI45
aI45
aI45
aI31
aI57
aI29
atp15
sS'Zebrafish'
p16
((lp17
I973
aI948
aI949
aI616
aI625
aI623
aI621
aI406
aI610
aI928
aI936
aI944
aI933
aI884
aI784
a(lp18
I7
aI30
aI27
aI358
aI347
aI347
aI347
aI560
aI353
aI32
aI19
aI1
aI2
aI1
aI1
atp19
s(lp20
I0
aI1
aI2
aI6
at.