((dp1
S'Sowbug3'
p2
((lp3
I869
aI910
aI916
aI914
aI912
aI941
aI939
aI937
aI934
aI932
aI920
aI926
aI818
aI852
aI766
a(lp4
I102
aI59
aI51
aI51
aI51
aI20
aI20
aI20
aI20
aI19
aI26
aI10
aI108
aI24
aI10
atp5
sS'Cam1'
p6
((lp7
I3714
aI4060
aI4403
aI4401
aI4515
aI4146
aI3942
aI3940
aI4012
aI4009
aI4535
aI4801
aI4925
aI4882
aI4654
a(lp8
I1488
aI1140
aI795
aI795
aI679
aI1046
aI1248
aI1248
aI1173
aI1173
aI642
aI366
aI232
aI225
aI353
atp9
sS'Ns'
p10
(lp11
I5
aI7
aI9
aI11
aI13
aI15
aI17
aI19
aI22
aI25
aI30
aI40
aI50
aI100
aI200
asS'Camera3'
p12
((lp13
I401
aI399
aI405
aI403
aI401
aI399
aI397
aI396
aI393
aI390
aI860
aI814
aI782
aI800
aI713
a(lp14
I539
aI539
aI531
aI531
aI531
aI531
aI531
aI530
aI530
aI530
aI55
aI91
aI113
aI45
aI32
atp15
sS'Zebrafish'
p16
((lp17
I970
aI974
aI955
aI954
aI952
aI950
aI941
aI939
aI939
aI940
aI936
aI938
aI930
aI885
aI785
a(lp18
I10
aI4
aI21
aI20
aI20
aI20
aI27
aI27
aI24
aI20
aI19
aI7
aI5
aI0
aI0
atp19
s(lp20
I0
aI1
aI2
aI3
aI6
at.