(dp1
S'Sowbug3'
p2
((lp3
I885
aI918
aI933
aI932
aI931
aI930
aI929
aI928
aI927
aI926
aI925
aI924
aI946
aI957
aI956
aI954
aI951
aI941
aI919
aI911
aI894
aI874
aI821
aI771
a(lp4
I101
aI66
aI50
aI50
aI50
aI50
aI50
aI50
aI50
aI50
aI50
aI50
aI27
aI15
aI15
aI15
aI15
aI20
aI32
aI30
aI22
aI17
aI20
aI20
atp5
sS'Cam1'
p6
((lp7
I3748
aI4080
aI4095
aI3660
aI4169
aI4570
aI4730
aI4721
aI4720
aI4719
aI4718
aI4717
aI4793
aI4765
aI4764
aI4782
aI4779
aI4764
aI4819
aI4823
aI4790
aI4875
aI4934
aI4937
a(lp8
I1501
aI1167
aI1151
aI1585
aI1075
aI673
aI512
aI520
aI520
aI520
aI520
aI520
aI443
aI470
aI470
aI450
aI450
aI460
aI395
aI381
aI389
aI279
aI170
aI117
atp9
sS'Ns'
p10
(lp11
I5
aI7
aI8
aI9
aI10
aI11
aI12
aI13
aI14
aI15
aI16
aI17
aI18
aI19
aI20
aI22
aI25
aI30
aI40
aI50
aI75
aI100
aI150
aI200
asS'Camera3'
p12
((lp13
I402
aI400
aI892
aI891
aI855
aI854
aI853
aI852
aI851
aI893
aI892
aI872
aI878
aI850
aI849
aI847
aI844
aI860
aI852
aI853
aI809
aI796
aI765
aI708
a(lp14
I540
aI540
aI47
aI47
aI82
aI82
aI82
aI82
aI82
aI39
aI39
aI58
aI51
aI78
aI78
aI78
aI78
aI57
aI55
aI44
aI63
aI51
aI32
aI39
atp15
sS'Zebrafish'
p16
((lp17
I795
aI985
aI984
aI983
aI982
aI980
aI979
aI978
aI977
aI976
aI975
aI974
aI973
aI972
aI967
aI965
aI962
aI959
aI950
aI941
aI916
aI893
aI843
aI793
a(lp18
I194
aI2
aI2
aI2
aI2
aI3
aI3
aI3
aI3
aI3
aI3
aI3
aI3
aI3
aI7
aI7
aI7
aI5
aI4
aI3
aI3
aI1
aI1
aI1
atp19
s.