(dp1
S'Sowbug3_nogaps'
p2
(F0.76064917741218319
F0.17314361938639394
F0.70302356602934635
F0.14201867496665185
tp3
sS'Zebrafish'
p4
(F0.88002400320042673
F0.0063475130017335646
F0.96918767507002801
F0.0027210884353741495
tp5
sS'Cam1'
p6
(F0.7167630057803468
F0.0031866014524974061
F0.59496813398547499
F0.068141396176078256
tp7
sS'Camera3'
p8
(F0.82378835037794573
F0.052489995553579367
F0.68795020008892838
F0.19035126722987994
tp9
sS'Camera3_nogaps'
p10
(F0.90433526011560694
F0.057981325033348158
F0.68795020008892838
F0.19035126722987994
tp11
sS'Cam1_nogaps'
p12
(F0.95950051874907372
F0.016118274788795021
F0.59496813398547499
F0.068141396176078256
tp13
sS'Sowbug3'
p14
(F0.70600266785237886
F0.15282347710093375
F0.70302356602934635
F0.14201867496665185
tp15
sS'Zebrafish_nogaps'
p16
(F0.94021869582611017
F0.035778103747166286
F0.96918767507002801
F0.0027210884353741495
tp17
s.