(dp1
S'Sowbug3_nogaps'
p2
(F0.76064917741218319
F0.17314361938639394
F0.80128946198310358
F0.077189862160960424
tp3
sS'Zebrafish'
p4
(F0.88002400320042673
F0.0063475130017335646
F0.97170868347338935
F0.0010404161664665866
tp5
sS'Cam1'
p6
(F0.7167630057803468
F0.0031866014524974061
F0.66911219801393207
F0.01841559211501408
tp7
sS'Camera3'
p8
(F0.82378835037794573
F0.052489995553579367
F0.66751889728768343
F0.21989773232547799
tp9
sS'Camera3_nogaps'
p10
(F0.90433526011560694
F0.057981325033348158
F0.66751889728768343
F0.21989773232547799
tp11
sS'Cam1_nogaps'
p12
(F0.95950051874907372
F0.016118274788795021
F0.66911219801393207
F0.01841559211501408
tp13
sS'Sowbug3'
p14
(F0.70600266785237886
F0.15282347710093375
F0.80128946198310358
F0.077189862160960424
tp15
sS'Zebrafish_nogaps'
p16
(F0.94021869582611017
F0.035778103747166286
F0.97170868347338935
F0.0010404161664665866
tp17
s.