(lp1
((lp2
F323
aF76
aF11
aF154
aF353
aF242
aF140
aF14
aF307
aF321
aF171
aF197
aF63
aF55
aF87
aF235
aF192
aF238
aF286
aF112
aF167
aF328
aF58
aF249
aF347
aF253
aF27
aF238
aF311
aF220
aF196
aF13
aF83
aF5
aF212
aF3
aF40
aF292
aF92
aF127
aF328
aF27
aF324
aF198
aF182
aF353
aF37
aF36
aF261
aF224
aF344
aF11
aF338
aF76
aF158
aF140
aF97
aF333
aF22
aF6
aF120
aF323
aF176
aF45
aF319
aF225
aF66
aF182
aF218
aF107
aF76
aF183
aF81
aF105
aF121
aF108
aF153
aF141
aF210
aF326
aF220
aF119
aF36
aF49
aF311
aF236
aF276
aF353
aF127
aF345
aF256
aF347
aF307
aF62
aF154
aF296
aF2
aF51
aF57
aF319
aF347
aF226
aF22
aF132
aF331
aF98
aF27
aF319
aF247
aF141
aF9
aF167
aF105
aF69
aF96
aF260
aF309
aF221
aF196
aF60
aF74
aF89
aF283
aF336
aF36
aF243
aF347
aF279
aF122
aF115
aF88
aF74
aF28
aF101
aF149
aF252
aF266
aF62
aF25
aF243
aF104
aF88
aF5
aF66
aF145
aF44
aF328
aF293
aF203
aF158
aF105
aF198
aF6
aF309
aF271
aF120
aF319
aF58
aF210
aF193
aF139
aF256
aF12
aF284
aF100
aF350
aF158
aF33
aF246
aF198
aF218
aF75
aF182
aF283
aF193
aF136
aF326
aF305
aF268
aF130
aF34
aF206
aF315
aF27
aF141
aF339
aF147
aF147
aF258
aF111
aF94
aF87
aF88
aF219
aF216
aF88
aF261
aF258
aF52
aF120
aF203
aF224
aF90
aF88
aF219
aF142
aF276
aF261
aF341
aF224
aF311
aF341
aF103
aF190
aF182
aF272
aF223
aF44
aF169
aF194
aF32
aF251
aF144
aF183
aF14
aF65
aF213
aF141
aF252
aF121
aF4
aF157
aF109
aF184
aF46
aF334
aF115
aF58
aF132
aF105
aF233
aF158
aF238
aF158
aF155
aF141
aF100
aF142
aF296
aF317
aF307
aF70
aF244
aF268
aF120
aF323
aF44
aF335
aF308
aF319
aF137
aF222
aF169
aF145
aF318
aF219
aF120
aF285
aF118
aF257
aF5
aF329
aF59
aF7
aF138
aF30
aF61
aF319
aF348
aF6
aF243
aF252
aF295
aF149
aF103
aF271
aF77
aF214
aF249
aF275
aF83
aF259
aF4
aF169
aF145
aF214
aF90
aF158
aF198
aF152
aF22
aF336
aF176
aF147
aF174
aF254
aF317
aF353
aF138
aF129
aF212
aF221
aF47
aF110
aF329
aF295
aF73
aF67
aF127
aF97
aF161
aF263
aF88
aF318
aF228
aF177
aF158
aF283
aF193
aF87
aF103
aF73
aF46
aF292
aF293
aF138
aF81
aF284
aF158
aF318
aF88
aF187
aF217
aF349
aF43
aF188
aF125
aF334
aF177
aF251
aF78
aF228
aF197
aF275
aF309
aF347
aF36
aF355
aF70
aF20
aF83
aF115
aF147
aF355
aF334
aF66
aF267
aF240
aF333
aF187
aF158
aF27
aF338
aF244
aF318
aF74
aF330
aF258
aF184
aF347
aF58
aF251
aF121
aF281
aF157
aF243
aF232
aF95
aF80
aF287
aF117
aF145
aF333
aF130
aF65
aF242
aF222
aF167
aF88
aF151
aF35
aF213
aF309
aF161
aF173
aF158
aF310
aF341
aF167
aF334
aF309
aF251
aF106
aF224
aF215
aF48
aF226
aF225
aF55
aF62
aF199
aF339
aF242
aF303
aF238
aF323
aF115
aF341
aF95
aF5
aF68
aF105
aF225
aF183
aF142
aF162
aF106
aF116
aF198
aF357
aF116
aF126
aF324
aF258
aF74
aF18
aF234
aF167
aF167
aF228
aF329
aF347
aF288
aF341
aF79
aF243
aF147
aF34
aF26
aF179
aF198
aF208
aF299
aF138
aF25
aF4
aF157
aF33
aF117
aF138
aF240
aF286
aF339
aF341
aF167
aF120
aF234
aF225
aF39
aF176
aF201
aF310
aF159
aF36
aF247
aF17
aF165
aF319
aF13
aF244
aF275
aF283
aF155
aF318
aF95
aF219
aF226
aF235
aF9
aF197
aF229
aF350
aF288
aF196
aF105
aF5
aF170
aF53
aF180
aF341
aF162
aF36
aF249
aF205
aF310
aF302
aF257
aF220
aF223
aF175
aF338
aF214
aF158
aF114
aF95
aF241
aF14
aF127
aF40
aF282
aF140
aF227
aF330
aF107
aF345
aF204
aF275
aF204
aF45
aF11
aF241
aF29
aF149
aF326
aF107
aF120
aF32
aF128
aF42
aF21
aF207
aF299
aF130
aF260
aF176
aF299
aF309
aF25
aF130
aF245
aF200
aF318
aF12
aF299
aF210
aF184
aF22
aF286
aF88
aF58
aF61
aF288
aF226
aF7
aF127
aF344
aF188
aF321
aF189
aF252
aF54
aF226
aF66
aF79
aF290
aF37
aF0
aF314
aF347
aF251
aF58
aF210
aF212
aF53
aF89
aF9
aF5
aF323
aF357
aF253
aF267
aF315
aF14
aF150
aF248
aF198
aF175
aF326
aF100
aF315
aF62
aF73
aF319
aF131
aF284
aF127
aF117
aF191
aF186
aF225
aF281
aF341
aF119
aF343
aF340
aF65
aF307
aF140
aF226
aF323
aF187
aF319
aF103
aF319
aF149
aF245
aF275
aF223
aF119
aF190
aF292
aF204
aF240
aF221
aF352
aF189
aF323
aF116
aF204
aF67
aF148
aF203
aF312
aF219
aF58
aF21
aF128
aF74
aF134
aF244
aF47
aF16
aF344
aF331
aF335
aF198
aF89
aF165
aF276
aF271
aF218
aF254
aF257
aF230
aF193
aF36
aF210
aF64
aF50
aF296
aF141
aF14
aF42
aF238
aF205
aF254
aF47
aF225
aF283
aF155
aF7
aF283
aF29
aF27
aF299
aF293
aF36
aF167
aF295
aF104
aF265
aF140
aF103
aF288
aF263
aF67
aF5
aF207
aF42
aF235
aF34
aF50
aF36
aF197
aF14
aF244
aF225
aF167
aF138
aF218
aF86
aF96
aF116
aF347
aF147
aF345
aF192
aF34
aF239
aF90
aF172
aF158
aF141
aF242
aF218
aF310
aF183
aF27
aF240
aF238
aF189
aF58
aF306
aF138
aF238
aF283
aF354
aF96
aF252
aF122
aF160
aF147
aF272
aF167
aF274
aF29
aF331
aF349
aF45
aF210
aF357
aF163
aF13
aF35
aF73
aF153
aF347
aF13
aF13
aF309
aF113
aF46
aF293
aF115
aF315
aF95
aF40
aF126
aF140
aF87
aF76
aF250
aF304
aF73
aF50
aF319
aF312
aF212
aF97
aF244
aF323
aF45
aF187
aF339
aF284
aF324
aF256
aF118
aF182
aF225
aF354
aF197
aF49
aF305
aF66
aF247
aF159
aF201
aF343
aF9
aF154
aF105
aF80
aF39
aF42
aF152
aF292
aF285
aF226
aF323
aF296
aF182
aF347
aF343
aF19
aF19
aF226
aF101
aF158
aF179
aF88
aF225
aF281
aF345
aF176
aF243
aF312
aF138
aF22
aF40
aF332
aF326
aF140
aF346
aF225
aF322
aF119
aF115
aF248
aF227
aF159
aF169
aF138
aF275
aF120
aF67
aF75
aF65
aF162
aF190
aF25
aF113
aF169
aF265
aF209
aF217
aF190
aF226
aF42
aF27
aF236
aF71
aF182
aF36
aF88
aF272
aF225
aF165
aF174
aF337
aF36
aF46
aF63
aF171
aF330
aF136
aF158
aF225
aF120
aF319
aF141
aF63
aF157
aF128
aF357
aF276
aF114
aF45
aF301
aF198
aF2
aF252
aF247
aF336
aF357
aF152
aF288
aF225
aF271
aF67
aF353
aF138
aF328
aF87
aF199
aF319
aF170
aF215
aF119
aF160
aF243
aF200
aF3
aF107
aF200
aF220
aF303
aF175
aF159
aF74
aF15
aF120
aF39
aF240
aF235
aF238
aF87
aF226
aF269
aF94
aF158
aF342
aF105
aF104
aF180
aF148
aF336
aF146
aF32
aF225
aF219
aF156
aF191
aF136
aF266
aF63
aF167
aF306
aF269
aF58
aF312
aF334
aF275
aF240
aF337
aF276
aF346
aF347
aF273
aF184
aF296
aF319
aF33
aF201
aF105
aF267
aF145
aF46
aF204
aF55
aF309
aF76
aF317
aF50
aF88
aF288
aF191
aF286
aF29
aF105
aF36
aF190
aF54
aF306
aF347
aF319
aF61
aF121
aF299
aF117
aF230
aF308
aF315
aF158
aF89
aF260
aF309
aF182
aF292
aF341
aF147
aF210
aF203
aF39
aF231
aF65
aF186
aF14
aF120
aF27
aF230
aF317
aF285
aF332
aF97
aF275
aF236
aF23
aF127
aF225
aF318
aF271
aF27
aF190
aF103
aF236
aF145
aF15
aF94
aF201
aF224
aF192
aF97
aF244
aF191
aF52
aF109
aF70
aF166
aF4
aF257
aF73
aF318
aF74
aF269
aF155
aF256
aF214
aF309
aF140
aF161
aF158
aF120
aF131
aF174
aF72
aF41
aF147
aF120
aF169
aF4
aF247
aF123
aF188
aF141
aF121
aF282
aF225
aF147
aF13
aF337
aF6
aF235
aF116
aF198
aF214
aF219
aF61
aF357
aF309
aF122
aF188
aF138
aF232
aF129
aF44
aF201
aF342
aF310
aF15
aF157
aF255
aF77
aF180
aF6
aF205
aF220
aF67
aF152
aF319
aF257
aF78
aF127
aF235
aF278
aF145
aF62
aF309
aF77
aF12
aF50
aF141
aF65
aF5
aF268
aF281
aF25
aF224
aF94
aF327
aF133
aF204
aF120
aF137
aF87
aF134
aF204
aF62
aF158
aF350
aF301
aF256
aF236
aF282
aF25
aF171
aF186
aF296
aF103
aF116
aF34
aF350
aF188
aF218
aF249
aF324
aF322
aF318
aF219
aF254
aF225
aF1
aF335
aF117
aF345
aF34
aF197
aF258
aF157
aF280
aF21
aF120
aF119
aF167
aF190
aF116
aF101
aF357
aF279
aF53
aF204
aF155
aF109
aF34
aF207
aF45
aF118
aF354
aF245
aF25
aF44
aF188
aF36
aF58
aF127
aF309
aF244
aF43
aF223
aF214
aF319
aF37
aF95
aF7
aF17
aF244
aF130
aF302
aF344
aF271
aF292
aF157
aF141
aF196
aF334
aF278
aF129
aF341
aF88
aF234
aF37
aF220
aF225
aF329
aF302
aF242
aF128
aF5
aF158
aF171
aF219
aF17
aF129
aF251
aF128
aF245
aF169
aF134
aF72
aF353
aF128
aF119
aF181
aF43
aF111
aF309
aF67
aF301
aF7
aF219
aF290
aF159
aF281
aF114
aF295
aF309
aF337
aF284
aF215
aF204
aF251
aF260
aF159
aF221
aF323
aF304
aF99
aF43
aF58
aF142
aF201
aF289
aF167
aF252
aF344
aF104
aF139
aF137
aF102
aF105
aF256
aF307
aF140
aF44
aF238
aF4
aF309
aF145
aF265
aF116
aF176
aF65
aF252
aF248
aF337
aF70
aF268
aF225
aF256
aF283
aF63
aF58
aF141
aF244
aF32
aF53
aF307
aF214
aF32
aF33
aF176
aF275
aF244
aF290
aF83
aF105
aF270
aF238
aF17
aF130
aF332
aF225
aF253
aF120
aF250
aF258
aF194
aF180
aF88
aF286
aF92
aF260
aF140
aF62
aF80
aF248
aF243
aF158
aF36
aF5
aF265
aF318
aF265
aF280
aF147
aF260
aF127
aF295
aF235
aF83
aF280
aF36
aF304
aF310
aF194
aF255
aF91
aF137
aF108
aF221
aF252
aF77
aF53
aF188
aF286
aF76
aF198
aF120
aF252
aF72
aF306
aF116
aF357
aF18
aF226
aF354
aF224
aF324
aF119
aF47
aF22
aF341
aF149
aF252
aF190
aF154
aF227
aF2
aF208
aF306
aF318
aF351
aF171
aF219
aF272
aF49
aF134
aF318
aF281
aF4
aF203
aF181
aF332
aF318
aF33
aF184
aF88
aF319
aF83
aF128
aF65
aF303
aF349
aF320
aF4
aF253
aF344
aF345
aF187
aF225
aF67
aF49
aF43
aF286
aF286
aF276
aF17
aF194
aF225
aF33
aF312
aF37
aF74
aF6
aF309
aF149
aF356
aF159
aF340
aF36
aF240
aF37
aF340
aF158
aF95
aF212
aF201
aF289
aF170
aF192
aF302
aF14
aF47
aF88
aF224
aF255
aF271
aF107
aF116
aF13
aF194
aF240
aF348
aF183
aF302
aF302
aF309
aF300
aF244
aF158
aF309
aF334
aF182
aF300
aF305
aF243
aF112
aF234
aF63
aF137
aF81
aF210
aF203
aF154
aF113
aF17
aF327
aF229
aF226
aF149
aF310
aF268
aF159
aF261
aF99
aF126
aF160
aF271
aF209
aF314
aF239
aF238
aF319
aF298
aF29
aF201
aF182
aF256
aF42
aF129
aF286
aF98
aF128
aF238
aF329
aF224
aF77
aF189
aF343
aF157
aF302
aF234
aF256
aF36
aF257
aF39
aF221
aF138
aF20
aF340
aF146
aF147
aF256
aF50
aF41
aF225
aF235
aF221
aF238
aF309
aF220
aF138
aF106
aF257
aF177
aF136
aF6
aF129
aF58
aF186
aF257
aF275
aF60
aF119
aF346
aF101
aF244
aF356
aF72
aF0
aF131
aF81
aF73
aF235
aF321
aF286
aF147
aF341
aF5
aF263
aF260
aF321
aF122
aF188
aF182
aF171
aF217
aF347
aF350
aF138
aF225
aF49
aF319
aF236
aF42
aF88
aF169
aF4
aF200
aF120
aF224
aF242
aF343
aF344
aF271
aF176
aF88
aF83
aF55
aF97
aF131
aF25
aF288
aF334
aF309
aF152
aF36
aF44
aF138
aF119
aF278
aF301
aF203
aF248
aF214
aF302
aF116
aF226
aF170
aF112
aF126
aF53
aF219
aF315
aF101
aF87
aF19
aF256
aF298
aF58
aF82
aF200
aF12
aF160
aF253
aF281
aF155
aF252
aF355
aF117
aF88
aF136
aF219
aF89
aF65
aF108
aF19
aF219
aF36
aF173
aF127
aF346
aF50
aF179
aF94
aF323
aF344
aF140
aF54
aF138
aF171
aF1
aF334
aF20
aF117
aF286
aF128
aF40
aF105
aF348
aF27
aF17
aF332
aF132
aF246
aF348
aF9
aF164
aF25
aF119
aF266
aF209
aF337
aF158
aF249
aF149
aF271
aF169
aF122
aF228
aF35
aF160
aF345
aF118
aF227
aF138
aF313
aF344
aF155
aF207
aF116
aF290
aF116
aF52
aF174
aF8
aF67
aF242
aF167
aF115
aF215
aF192
aF97
aF64
aF228
aF173
aF25
aF10
aF313
aF290
aF120
aF238
aF70
aF65
aF76
aF311
aF47
aF73
aF197
aF256
aF14
aF258
aF12
aF12
aF252
aF210
aF127
aF316
aF282
aF83
aF270
aF259
aF200
aF281
aF329
aF120
aF331
aF228
aF126
aF179
aF119
aF137
aF130
aF14
aF243
aF318
aF262
aF88
aF29
aF209
aF98
aF58
aF186
aF239
aF134
aF77
aF295
aF293
aF32
aF175
aF50
aF238
aF319
aF67
aF113
aF299
aF302
aF19
aF116
aF295
aF242
aF120
aF289
aF281
aF50
aF112
aF75
aF348
aF244
aF169
aF309
aF319
aF53
aF53
aF282
aF261
aF176
aF264
aF309
aF61
aF188
aF162
aF255
aF140
aF160
aF116
aF88
aF42
aF344
aF50
aF318
aF275
aF127
aF167
aF19
aF261
aF270
aF224
aF95
aF191
aF318
aF223
aF141
aF210
aF158
aF339
aF256
aF311
aF226
aF67
aF192
aF337
aF341
aF292
aF141
aF113
aF210
aF141
aF283
aF345
aF348
aF7
aF61
aF280
aF203
aF43
aF289
aF52
aF167
aF243
aF21
aF160
aF260
aF347
aF240
aF27
aF238
aF52
aF310
aF63
aF83
aF230
aF58
aF128
aF324
aF139
aF240
aF83
aF149
aF159
aF36
aF323
aF130
aF97
aF323
aF14
aF125
aF309
aF225
aF347
aF346
aF222
aF227
aF344
aF314
aF265
aF149
aF241
aF131
aF318
aF356
aF347
aF341
aF260
aF272
aF88
aF249
aF86
aF345
aF137
aF51
aF116
aF32
aF249
aF2
aF268
aF229
aF214
aF88
aF312
aF331
aF226
aF265
aF67
aF44
aF37
aF88
aF149
aF293
aF50
aF260
aF88
aF226
aF260
aF315
aF100
aF330
aF295
aF36
aF228
aF16
aF119
aF105
aF167
aF294
aF53
aF312
aF190
aF189
aF296
aF179
aF254
aF97
aF171
aF37
aF198
aF4
aF58
aF265
aF58
aF288
aF117
aF283
aF155
aF88
aF167
aF226
aF2
aF36
aF254
aF238
aF140
aF3
aF188
aF241
aF95
aF140
aF307
aF161
aF19
aF225
aF52
aF169
aF150
aF240
aF128
aF210
aF158
aF83
aF223
aF95
aF350
aF107
aF355
aF174
aF44
aF204
aF283
aF324
aF256
aF189
aF343
aF56
aF197
aF327
aF266
aF312
aF315
aF318
aF226
aF63
aF180
aF229
aF210
aF210
aF270
aF252
aF103
aF217
aF184
aF251
aF210
aF276
aF52
aF290
aF190
aF249
aF121
aF127
aF136
aF100
aF130
aF270
aF257
aF221
aF123
aF67
aF138
aF313
aF66
aF319
aF225
aF58
aF302
aF196
aF29
aF267
aF43
aF66
aF256
aF168
aF147
aF295
aF210
aF291
aF103
aF270
aF337
aF218
aF309
aF22
aF275
aF292
aF73
aF7
aF158
aF326
aF278
aF184
aF134
aF103
aF344
aF256
aF137
aF187
aF319
aF6
aF321
aF241
aF139
aF76
aF225
aF21
aF79
aF226
aF225
aF255
aF326
aF27
aF115
aF152
aF190
aF322
aF303
aF224
aF2
aF83
aF245
aF333
aF71
aF295
aF319
aF224
aF127
aF281
aF252
aF226
aF227
aF73
aF189
aF357
aF22
aF338
aF342
aF305
aF66
aF208
aF228
aF331
aF15
aF217
aF63
aF265
aF225
aF120
aF323
aF295
aF256
aF306
aF161
aF332
aF327
aF158
aF4
aF264
aF305
aF145
aF319
aF297
aF210
aF37
aF345
aF258
aF132
aF43
aF206
aF225
aF27
aF348
aF250
aF219
aF217
aF67
aF140
aF212
aF70
aF230
aF27
aF183
aF198
aF204
aF150
aF357
aF158
aF217
aF127
aF140
aF107
aF224
aF29
aF134
aF12
aF55
aF80
aF256
aF221
aF347
aF120
aF106
aF319
aF12
aF298
aF120
aF128
aF52
aF156
aF350
aF25
aF140
aF174
aF190
aF315
aF169
aF245
aF69
aF36
aF343
aF225
aF113
aF117
aF50
aF81
aF2
aF17
aF87
aF261
aF28
aF7
aF312
aF319
aF295
aF120
aF242
aF162
aF24
aF160
aF96
aF25
aF152
aF191
aF29
aF255
aF284
aF12
aF329
aF104
aF182
aF318
aF188
aF161
aF318
aF225
aF119
aF86
aF123
aF324
aF310
aF250
aF131
aF225
aF50
aF139
aF236
aF271
aF62
aF66
aF326
aF124
aF322
aF241
aF275
aF333
aF198
aF280
aF87
aF179
aF145
aF80
aF341
aF350
aF138
aF194
aF252
aF148
aF191
aF172
aF322
aF192
aF94
aF50
aF225
aF330
aF182
aF318
aF203
aF315
aF191
aF254
aF190
aF265
aF201
aF63
aF151
aF29
aF178
aF222
aF225
aF50
aF167
aF190
aF124
aF150
aF319
aF131
aF129
aF174
aF318
aF244
aF341
aF119
aF88
aF0
aF107
aF237
aF232
aF261
aF14
aF213
aF83
aF244
aF105
aF343
aF121
aF337
aF29
aF313
aF242
aF139
aF83
aF40
aF213
aF66
aF9
aF192
aF81
aF69
aF244
aF184
aF308
aF188
aF120
aF126
aF45
aF184
aF202
aF63
aF89
aF298
aF301
aF271
aF221
aF115
aF46
aF147
aF252
aF255
aF333
aF197
aF50
aF128
aF88
aF120
aF83
aF226
aF337
aF169
aF36
aF308
aF186
aF318
aF260
aF176
aF219
aF145
aF74
aF137
aF21
aF12
aF357
aF19
aF42
aF37
aF39
aF109
aF224
aF323
aF232
aF145
aF310
aF11
aF179
aF19
aF252
aF269
aF147
aF140
aF86
aF58
aF14
aF100
aF88
aF16
aF257
aF39
aF128
aF100
aF107
aF161
aF78
aF114
aF309
aF354
aF241
aF81
aF13
aF272
aF286
aF71
aF83
aF348
aF318
aF193
aF117
aF309
aF348
aF155
aF32
aF76
aF225
aF140
aF324
aF88
aF58
aF79
aF255
aF72
aF156
aF318
aF271
aF238
aF241
aF39
aF83
aF122
aF36
aF333
aF105
aF2
aF193
aF319
aF255
aF258
aF214
aF66
aF341
aF262
aF14
aF238
aF244
aF251
aF302
aF241
aF353
aF239
aF225
aF47
aF197
aF154
aF341
aF179
aF138
aF95
aF12
aF286
aF39
aF247
aF203
aF95
aF53
aF277
aF214
aF249
aF149
aF149
aF192
aF198
aF88
aF302
aF314
aF246
aF120
aF138
aF346
aF230
aF190
aF119
aF226
aF72
aF235
aF128
aF83
aF332
aF160
aF178
aF353
aF93
aF352
aF160
aF32
aF254
aF197
aF245
aF288
aF133
aF39
aF128
aF37
aF318
aF309
aF125
aF131
aF13
aF324
aF116
aF319
aF120
aF224
aF58
aF338
aF161
aF27
aF222
aF256
aF76
aF282
aF67
aF181
aF295
aF330
aF244
aF47
aF127
aF348
aF36
aF225
aF339
aF137
aF134
aF120
aF169
aF205
aF341
aF341
aF266
aF138
aF148
aF190
aF132
aF190
aF238
aF193
aF244
aF21
aF36
aF97
aF5
aF27
aF2
aF256
aF318
aF79
aF268
aF24
aF189
aF198
aF13
aF63
aF196
aF122
aF87
aF130
aF121
aF119
aF67
aF157
aF357
aF30
aF149
aF141
aF15
aF44
aF120
aF302
aF76
aF318
aF17
aF25
aF219
aF186
aF153
aF147
aF319
aF147
aF134
aF15
aF147
aF17
aF171
aF338
aF140
aF253
aF235
aF269
aF40
aF309
aF302
aF203
aF335
aF131
aF74
aF319
aF295
aF12
aF324
aF101
aF243
aF166
aF138
aF180
aF52
aF81
aF235
aF258
aF36
aF52
aF47
aF198
aF184
aF210
aF210
aF235
aF25
aF42
aF141
aF91
aF86
aF348
aF264
aF288
aF179
aF5
aF167
aF164
aF252
aF225
aF204
aF123
aF319
aF344
aF107
aF173
aF105
aF225
aF288
aF112
aF20
aF58
aF47
aF42
aF98
aF55
aF169
aF273
aF211
aF315
aF192
aF88
aF347
aF75
aF312
aF225
aF6
aF121
aF86
aF193
aF226
aF159
aF118
aF240
aF268
aF268
aF235
aF281
aF318
aF332
aF252
aF7
aF284
aF58
aF292
aF254
aF134
aF25
aF181
aF290
aF286
aF290
aF284
aF118
aF250
aF43
aF330
aF141
aF128
aF262
aF44
aF116
aF214
aF164
aF157
aF139
aF76
aF187
aF138
aF210
aF118
aF72
aF298
aF351
aF171
aF39
aF128
aF198
aF281
aF167
aF190
aF301
aF151
aF100
aF241
aF65
aF263
aF205
aF323
aF161
aF40
aF11
aF357
aF80
aF240
aF296
aF38
aF116
aF306
aF344
aF67
aF340
aF306
aF222
aF44
aF115
aF345
aF304
aF203
aF105
aF331
aF134
aF98
aF324
aF318
aF344
aF191
aF281
aF107
aF318
aF280
aF275
aF105
aF214
aF29
aF340
aF264
aF341
aF189
aF347
aF265
aF81
aF22
aF318
aF136
aF219
aF334
aF239
aF127
aF328
aF94
aF95
aF140
aF186
aF316
aF204
aF157
aF295
aF44
aF144
aF98
aF54
aF255
aF220
aF323
aF210
aF160
aF248
aF224
aF306
aF47
aF323
aF245
aF219
aF310
aF198
aF138
aF73
aF295
aF266
aF119
aF186
aF221
aF269
aF198
aF245
aF256
aF13
aF20
aF157
aF34
aF225
aF77
aF6
aF224
aF43
aF281
aF282
aF249
aF205
aF244
aF126
aF176
aF189
aF118
aF66
aF148
aF210
aF57
aF293
aF182
aF193
aF52
aF127
aF67
aF158
aF297
aF292
aF86
aF289
aF289
aF118
aF42
aF192
aF355
aF263
aF79
aF317
aF138
aF229
aF45
aF245
aF214
aF215
aF265
aF63
aF354
aF221
aF190
aF14
aF239
aF144
aF118
aF322
aF264
aF158
aF225
aF160
aF333
aF243
aF258
aF323
aF35
aF14
aF303
aF158
aF281
aF356
aF186
aF260
aF121
aF0
aF33
aF193
aF216
aF12
aF58
aF299
aF225
aF296
aF139
aF213
aF288
aF104
aF220
aF26
aF251
aF181
aF347
aF289
aF321
aF290
aF256
aF283
aF34
aF272
aF341
aF315
aF70
aF323
aF348
aF147
aF188
aF316
aF221
aF136
aF252
aF67
aF188
aF323
aF14
aF190
aF12
aF214
aF192
aF309
aF292
aF191
aF15
aF217
aF144
aF305
aF226
aF122
aF131
aF52
aF228
aF345
aF292
aF138
aF309
aF83
aF119
aF180
aF271
aF172
aF341
aF354
aF252
aF187
aF293
aF175
aF257
aF254
aF73
aF165
aF158
aF228
aF309
aF205
aF266
aF194
aF85
aF115
aF250
aF254
aF123
aF309
aF224
aF245
aF266
aF322
aF309
aF2
aF132
aF190
aF315
aF225
aF292
aF7
aF256
aF346
aF105
aF65
aF285
aF62
aF38
aF279
aF146
aF220
aF145
aF98
aF238
aF100
aF225
aF347
aF245
aF116
aF301
aF131
aF230
aF246
aF172
aF326
aF161
aF198
aF225
aF12
aF129
aF332
aF174
aF284
aF139
aF228
aF88
aF52
aF179
aF107
aF312
aF327
aF113
aF109
aF88
aF245
aF306
aF238
aF267
aF203
aF180
aF134
aF128
aF315
aF332
aF40
aF29
aF295
aF25
aF194
aF295
aF198
aF6
aF203
aF121
aF238
aF243
aF257
aF5
aF158
aF314
aF52
aF7
aF309
aF228
aF242
aF139
aF243
aF249
aF152
aF230
aF299
aF295
aF224
aF120
aF347
aF226
aF226
aF95
aF120
aF29
aF227
aF348
aF329
aF204
aF323
aF286
aF198
aF341
aF292
aF38
aF322
aF258
aF4
aF283
aF356
aF74
aF245
aF55
aF148
aF58
aF328
aF208
aF311
aF47
aF63
aF80
aF194
aF71
aF142
aF69
aF225
aF323
aF16
aF304
aF339
aF58
aF140
aF323
aF122
aF192
aF97
aF83
aF147
aF237
aF141
aF318
aF237
aF167
aF288
aF237
aF221
aF194
aF36
aF228
aF66
aF286
aF344
aF145
aF100
aF148
aF225
aF238
aF228
aF105
aF256
aF97
aF215
aF34
aF286
aF214
aF282
aF140
aF281
aF173
aF245
aF238
aF22
aF14
aF37
aF36
aF303
aF259
aF295
aF356
aF236
aF76
aF1
aF235
aF298
aF250
aF357
aF341
aF58
aF58
aF102
aF354
aF5
aF295
aF286
aF42
aF5
aF288
aF263
aF236
aF190
aF147
aF311
aF319
aF238
aF58
aF353
aF318
aF338
aF122
aF12
aF302
aF77
aF262
aF81
aF265
aF67
aF210
aF42
aF204
aF219
aF294
aF101
aF151
aF225
aF341
aF200
aF240
aF27
aF217
aF81
aF190
aF192
aF45
aF243
aF36
aF19
aF43
aF27
aF29
aF38
aF186
aF134
aF319
aF41
aF46
aF188
aF157
aF120
aF36
aF73
aF25
aF296
aF318
aF343
aF171
aF301
aF129
aF47
aF271
aF331
aF319
aF296
aF355
aF354
aF218
aF224
aF147
aF240
aF95
aF247
aF11
aF204
aF327
aF103
aF340
aF30
aF240
aF323
aF183
aF109
aF22
aF17
aF305
aF58
aF284
aF61
aF45
aF155
aF319
aF154
aF249
aF1
aF48
aF39
aF270
aF225
aF57
aF142
aF81
aF36
aF197
aF256
aF70
aF127
aF167
aF306
aF43
aF81
aF239
aF9
aF179
aF244
aF67
aF280
aF224
aF214
aF260
aF32
aF344
aF115
aF311
aF341
aF65
aF258
aF235
aF162
aF126
aF194
aF97
aF143
aF299
aF120
aF50
aF285
aF130
aF78
aF42
aF244
aF61
aF36
aF50
aF198
aF88
aF242
aF109
aF96
aF254
aF210
aF126
aF117
aF83
aF29
aF310
aF13
aF138
aF260
aF313
aF255
aF45
aF160
aF312
aF58
aF29
aF138
aF337
aF246
aF107
aF167
aF88
aF299
aF288
aF89
aF323
aF304
aF158
aF292
aF342
aF126
aF25
aF80
aF13
aF145
aF298
aF188
aF245
aF25
aF223
aF189
aF16
aF267
aF145
aF88
aF7
aF340
aF344
aF357
aF319
aF300
aF323
aF146
aF122
aF319
aF118
aF225
aF261
aF128
aF98
aF5
aF74
aF145
aF302
aF302
aF244
aF329
aF167
aF81
aF269
aF109
aF350
aF214
aF256
aF309
aF269
aF332
aF52
aF62
aF237
aF226
aF42
aF36
aF233
aF220
aF281
aF319
aF140
aF40
aF111
aF34
aF0
aF216
aF254
aF197
aF253
aF17
aF236
aF6
aF228
aF58
aF38
aF80
aF105
aF67
aF179
aF281
aF137
aF210
aF131
aF55
aF241
aF147
aF225
aF14
aF158
aF273
aF346
aF218
aF194
aF269
aF88
aF231
aF3
aF167
aF343
aF294
aF127
aF281
aF228
aF109
aF323
aF107
aF179
aF85
aF186
aF158
aF230
aF145
aF78
aF125
aF245
aF251
aF285
aF124
aF245
aF253
aF190
aF161
aF181
aF155
aF24
aF184
aF355
aF339
aF141
aF243
aF191
aF127
aF225
aF226
aF337
aF323
aF152
aF101
aF272
aF196
aF75
aF312
aF311
aF275
aF218
aF281
aF128
aF144
aF293
aF350
aF36
aF201
aF65
aF345
aF36
aF111
aF224
aF73
aF108
aF176
aF232
aF343
aF50
aF87
aF18
aF23
aF222
aF21
aF120
aF226
aF167
aF255
aF242
aF196
aF314
aF309
aF319
aF45
aF120
aF141
aF88
aF169
aF169
aF105
aF309
aF318
aF170
aF217
aF339
aF120
aF319
aF88
aF169
aF320
aF17
aF244
aF225
aF339
aF323
aF272
aF142
aF152
aF24
aF298
aF29
aF245
aF323
aF120
aF63
aF317
aF296
aF83
aF337
aF97
aF13
aF311
aF88
aF210
aF134
aF160
aF51
aF324
aF134
aF116
aF294
aF238
aF226
aF101
aF255
aF340
aF279
aF256
aF2
aF326
aF166
aF10
aF325
aF167
aF85
aF149
aF113
aF201
aF260
aF205
aF309
aF157
aF103
aF293
aF186
aF225
aF190
aF113
aF220
aF65
aF5
aF83
aF2
aF318
aF258
aF165
aF223
aF95
aF228
aF170
aF223
aF59
aF211
aF62
aF283
aF187
aF286
aF249
aF53
aF344
aF29
aF149
aF36
aF283
aF50
aF244
aF158
aF256
aF175
aF216
aF128
aF254
aF319
aF6
aF268
aF167
aF159
aF119
aF330
aF233
aF323
aF355
aF317
aF288
aF95
aF188
aF147
aF281
aF179
aF94
aF221
aF255
aF55
aF258
aF39
aF210
aF218
aF198
aF88
aF44
aF290
aF323
aF312
aF14
aF169
aF221
aF6
aF9
aF5
aF88
aF127
aF256
aF40
aF282
aF4
aF288
aF228
aF226
aF226
aF267
aF221
aF142
aF286
aF351
aF315
aF83
aF283
aF198
aF11
aF84
aF138
aF126
aF309
aF130
aF316
aF197
aF88
aF171
aF288
aF189
aF26
aF43
aF4
aF94
aF120
aF127
aF19
aF204
aF27
aF246
aF319
aF351
aF126
aF336
aF160
aF244
aF349
aF306
aF344
aF189
aF269
aF125
aF32
aF129
aF226
aF255
aF203
aF286
aF351
aF229
aF17
aF313
aF226
aF142
aF115
aF95
aF255
aF83
aF33
aF125
aF260
aF179
aF355
aF343
aF32
aF36
aF228
aF67
aF352
aF331
aF326
aF97
aF9
aF281
aF256
aF141
aF292
aF225
aF80
aF337
aF72
aF311
aF284
aF208
aF83
aF268
aF284
aF41
aF89
aF238
aF345
aF252
aF107
aF283
aF203
aF97
aF254
aF286
aF189
aF211
aF63
aF130
aF281
aF75
aF225
aF270
aF188
aF309
aF345
aF220
aF141
aF241
aF271
aF62
aF45
aF256
aF190
aF253
aF242
aF104
aF174
aF253
aF45
aF298
aF337
aF104
aF226
aF44
aF162
aF190
aF64
aF14
aF75
aF22
aF295
aF42
aF345
aF248
aF136
aF234
aF341
aF238
aF22
aF238
aF151
aF256
aF219
aF281
aF17
aF261
aF100
aF140
aF225
aF347
aF36
aF9
aF14
aF285
aF190
aF309
aF21
aF309
aF66
aF15
aF240
aF303
aF78
aF168
aF305
aF158
aF245
aF289
aF220
aF343
aF7
aF315
aF61
aF88
aF225
aF343
aF53
aF287
aF184
aF95
aF68
aF24
aF15
aF244
aF36
aF213
aF187
aF345
aF312
aF109
aF88
aF190
aF319
aF25
aF95
aF82
aF333
aF219
aF270
aF265
aF337
aF52
aF256
aF205
aF175
aF29
aF211
aF236
aF240
aF334
aF355
aF14
aF182
aF138
aF88
aF260
aF23
aF254
aF204
aF324
aF29
aF90
aF36
aF281
aF141
aF324
aF256
aF147
aF147
aF297
aF53
aF138
aF344
aF188
aF158
aF256
aF149
aF57
aF314
aF49
aF67
aF285
aF249
aF117
aF244
aF344
aF36
aF116
aF260
aF98
aF290
aF27
aF191
aF5
aF298
aF225
aF163
aF331
aF24
aF5
aF139
aF76
aF284
aF286
aF75
aF119
aF180
aF323
aF142
aF74
aF269
aF245
aF118
aF158
aF62
aF322
aF275
aF169
aF214
aF285
aF319
aF208
aF159
aF339
aF53
aF120
aF306
aF138
aF281
aF302
aF343
aF117
aF344
aF32
aF214
aF190
aF350
aF84
aF290
aF318
aF335
aF272
aF140
aF341
aF14
aF323
aF269
aF36
aF85
aF346
aF115
aF254
aF160
aF273
aF138
aF312
aF37
aF156
aF159
aF161
aF0
aF338
aF142
aF288
aF62
aF186
aF244
aF61
aF9
aF225
aF235
aF290
aF40
aF281
aF205
aF318
aF73
aF327
aF169
aF154
aF188
aF281
aF184
aF193
aF302
aF47
aF158
aF208
aF224
aF180
aF140
aF61
aF215
aF325
aF318
aF87
aF91
aF262
aF323
aF182
aF228
aF347
aF256
aF214
aF37
aF282
aF311
aF260
aF222
aF257
aF244
aF314
aF21
aF192
aF251
aF42
aF319
aF265
aF86
aF290
aF127
aF183
aF319
aF108
aF197
aF319
aF169
aF173
aF138
aF198
aF243
aF293
aF246
aF47
aF327
aF199
aF257
aF182
aF309
aF356
aF27
aF275
aF62
aF263
aF244
aF145
aF301
aF142
aF109
aF235
aF350
aF295
aF258
aF120
aF190
aF270
aF288
aF52
aF62
aF306
aF11
aF101
aF156
aF265
aF244
aF334
aF324
aF15
aF309
aF15
aF344
aF324
aF95
aF244
aF36
aF302
aF345
aF309
aF140
aF36
aF87
aF27
aF131
aF199
aF56
aF65
aF83
aF190
aF234
aF169
aF217
aF318
aF162
aF341
aF318
aF59
aF52
aF175
aF63
aF97
aF39
aF59
aF45
aF14
aF52
aF13
aF88
aF318
aF165
aF253
aF318
aF22
aF289
aF235
aF293
aF144
aF306
aF153
aF238
aF244
aF349
aF244
aF318
aF350
aF354
aF74
aF203
aF29
aF19
aF288
aF276
aF3
aF265
aF353
aF41
aF168
aF281
aF44
aF105
aF50
aF83
aF240
aF175
aF357
aF292
aF244
aF228
aF225
aF78
aF170
aF255
aF180
aF131
aF122
aF223
aF158
aF167
aF120
aF77
aF83
aF159
aF14
aF128
aF334
aF309
aF94
aF240
aF120
aF7
aF138
aF252
aF347
aF214
aF273
aF149
aF268
aF173
aF161
aF187
aF265
aF280
aF142
aF67
aF123
aF103
aF58
aF15
aF115
aF81
aF300
aF288
aF95
aF228
aF136
aF161
aF241
aF124
aF6
aF332
aF240
aF254
aF159
aF43
aF147
aF158
aF198
aF94
aF249
aF319
aF53
aF128
aF344
aF60
aF67
aF15
aF315
aF50
aF270
aF318
aF45
aF120
aF2
aF119
aF351
aF54
aF221
aF175
aF192
aF319
aF161
aF11
aF158
aF317
aF332
aF190
aF142
aF167
aF85
aF214
aF312
aF204
aF286
aF225
aF107
aF103
aF318
aF187
aF112
aF155
aF355
aF21
aF250
aF100
aF325
aF254
aF222
aF252
aF39
aF309
aF211
aF131
aF296
aF194
aF77
aF319
aF189
aF152
aF217
aF328
aF223
aF197
aF280
aF336
aF110
aF83
aF216
aF216
aF74
aF195
aF201
aF318
aF270
aF357
aF202
aF37
aF286
aF105
aF181
aF340
aF179
aF39
aF14
aF279
aF238
aF228
aF256
aF305
aF129
aF153
aF54
aF200
aF48
aF52
aF189
aF180
aF50
aF6
aF81
aF302
aF247
aF118
aF179
aF283
aF339
aF251
aF38
aF344
aF138
aF193
aF295
aF205
aF212
aF201
aF345
aF104
aF127
aF55
aF119
aF88
aF244
aF213
aF155
aF242
aF4
aF239
aF69
aF115
aF344
aF154
aF230
aF235
aF226
aF77
aF111
aF224
aF283
aF87
aF289
aF334
aF121
aF140
aF245
aF180
aF37
aF78
aF126
aF9
aF197
aF332
aF212
aF318
aF188
aF179
aF130
aF15
aF180
aF223
aF35
aF71
aF107
aF87
aF235
aF269
aF225
aF312
aF303
aF187
aF344
aF221
aF36
aF318
aF331
aF327
aF7
aF29
aF17
aF329
aF323
aF103
aF60
aF79
aF127
aF127
aF255
aF76
aF144
aF225
aF234
aF205
aF112
aF265
aF58
aF306
aF295
aF161
aF256
aF293
aF147
aF235
aF21
aF158
aF45
aF151
aF263
aF158
aF249
aF65
aF211
aF328
aF144
aF257
aF52
aF16
aF29
aF42
aF204
aF51
aF318
aF157
aF167
aF188
aF299
aF21
aF154
aF127
aF286
aF303
aF137
aF146
aF156
aF129
aF128
aF256
aF36
aF195
aF318
aF127
aF195
aF240
aF310
aF115
aF186
aF229
aF307
aF53
aF6
aF8
aF344
aF83
aF81
aF158
aF275
aF178
aF264
aF327
aF144
aF334
aF158
aF190
aF225
aF27
aF355
aF158
aF223
aF58
aF162
aF345
aF212
aF284
aF299
aF140
aF241
aF324
aF161
aF245
aF26
aF50
aF253
aF283
aF116
aF101
aF23
aF52
aF312
aF122
aF97
aF319
aF87
aF299
aF268
aF13
aF196
aF243
aF226
aF311
aF196
aF88
aF17
aF323
aF51
aF292
aF334
aF158
aF209
aF265
aF228
aF340
aF180
aF268
aF293
aF88
aF244
aF240
aF319
aF19
aF255
aF18
aF77
aF347
aF296
aF73
aF55
aF169
aF142
aF70
aF273
aF299
aF260
aF273
aF260
aF113
aF4
aF117
aF27
aF244
aF107
aF164
aF19
aF350
aF73
aF300
aF345
aF347
aF296
aF309
aF239
aF298
aF54
aF77
aF285
aF194
aF27
aF188
aF241
aF139
aF286
aF117
aF194
aF269
aF237
aF217
aF157
aF56
aF192
aF212
aF66
aF221
aF288
aF219
aF105
aF319
aF155
aF288
aF120
aF62
aF130
aF209
aF50
aF319
aF244
aF45
aF287
aF338
aF19
aF272
aF163
aF113
aF276
aF347
aF83
aF59
aF318
aF128
aF270
aF155
aF27
aF6
aF240
aF86
aF190
aF330
aF47
aF236
aF254
aF197
aF282
aF321
aF245
aF170
aF59
aF14
aF172
aF270
aF295
aF119
aF58
aF193
aF281
aF338
aF298
aF179
aF224
aF196
aF159
aF65
aF88
aF347
aF223
aF218
aF83
aF255
aF40
aF229
aF241
aF289
aF81
aF175
aF104
aF128
aF45
aF40
aF332
aF283
aF47
aF223
aF97
aF142
aF5
aF127
aF243
aF5
aF260
aF73
aF247
aF159
aF140
aF299
aF286
aF269
aF265
aF282
aF161
aF313
aF49
aF36
aF151
aF158
aF186
aF29
aF105
aF67
aF87
aF13
aF225
aF14
aF75
aF355
aF160
aF120
aF7
aF190
aF58
aF42
aF212
aF220
aF357
aF29
aF341
aF193
aF67
aF140
aF75
aF318
aF35
aF319
aF19
aF324
aF37
aF328
aF345
aF9
aF355
aF76
aF83
aF219
aF337
aF318
aF310
aF295
aF157
aF230
aF192
aF245
aF219
aF309
aF4
aF235
aF39
aF171
aF142
aF214
aF223
aF305
aF218
aF88
aF228
aF69
aF140
aF78
aF51
aF345
aF159
aF118
aF323
aF110
aF149
aF344
aF139
aF255
aF305
aF116
aF296
aF314
aF161
aF201
aF7
aF275
aF296
aF224
aF281
aF347
aF260
aF187
aF81
aF67
aF165
aF118
aF119
aF141
aF344
aF11
aF323
aF288
aF102
aF194
aF120
aF144
aF66
aF319
aF236
aF186
aF132
aF36
aF293
aF242
aF100
aF161
aF65
aF240
aF204
aF75
aF221
aF37
aF244
aF174
aF311
aF253
aF26
aF356
aF188
aF50
aF240
aF276
aF131
aF83
aF295
aF357
aF238
aF70
aF214
aF80
aF245
aF237
aF280
aF249
aF49
aF247
aF284
aF225
aF270
aF167
aF265
aF184
aF271
aF13
aF138
aF218
aF49
aF239
aF140
aF332
aF178
aF335
aF299
aF324
aF182
aF192
aF7
aF318
aF284
aF257
aF101
aF235
aF234
aF205
aF42
aF319
aF36
aF145
aF144
aF193
aF186
aF224
aF81
aF271
aF228
aF170
aF242
aF343
aF346
aF252
aF169
aF63
aF311
aF36
aF159
aF139
aF170
aF35
aF155
aF339
aF170
aF14
aF323
aF285
aF209
aF252
aF84
aF220
aF309
aF58
aF151
aF157
aF17
aF207
aF6
aF261
aF160
aF42
aF226
aF176
aF309
aF186
aF59
aF318
aF103
aF295
aF319
aF346
aF224
aF225
aF11
aF226
aF197
aF312
aF313
aF226
aF100
aF104
aF142
aF140
aF269
aF155
aF147
aF100
aF81
aF140
aF101
aF255
aF236
aF197
aF98
aF111
aF76
aF27
aF295
aF323
aF44
aF144
aF256
aF286
aF225
aF109
aF42
aF240
aF311
aF225
aF238
aF36
aF225
aF188
aF143
aF137
aF230
aF256
aF179
aF111
aF343
aF140
aF33
aF0
aF254
aF259
aF88
aF225
aF286
aF280
aF142
aF311
aF67
aF282
aF212
aF346
aF309
aF201
aF100
aF330
aF284
aF158
aF168
aF189
aF295
aF197
aF112
aF345
aF258
aF158
aF145
aF32
aF6
aF145
aF147
aF203
aF218
aF7
aF233
aF354
aF318
aF265
aF128
aF318
aF62
aF83
aF330
aF158
aF354
aF147
aF39
aF138
aF293
aF119
aF147
aF49
aF196
aF35
aF238
aF190
aF134
aF158
aF35
aF212
aF88
aF307
aF278
aF222
aF324
aF4
aF306
aF80
aF72
aF63
aF83
aF109
aF143
aF293
aF313
aF58
aF268
aF58
aF258
aF218
aF299
aF21
aF204
aF235
aF88
aF176
aF13
aF170
aF124
aF85
aF275
aF105
aF126
aF105
aF7
aF251
aF306
aF79
aF58
aF236
aF301
aF215
aF284
aF318
aF344
aF88
aF222
aF68
aF244
aF88
aF230
aF282
aF192
aF9
aF285
aF312
aF355
aF36
aF339
aF347
aF340
aF21
aF319
aF216
aF226
aF67
aF265
aF159
aF149
aF189
aF131
aF159
aF131
aF32
aF220
aF12
aF357
aF30
aF58
aF295
aF41
aF286
aF294
aF265
aF25
aF62
aF36
aF80
aF78
aF303
aF52
aF281
aF183
aF216
aF310
aF14
aF147
aF58
aF111
aF305
aF333
aF293
aF196
aF165
aF260
aF282
aF315
aF265
aF56
aF140
aF81
aF49
aF284
aF42
aF246
aF335
aF284
aF110
aF188
aF198
aF298
aF319
aF250
aF187
aF91
aF140
aF290
aF236
aF134
aF347
aF134
aF251
aF254
aF201
aF83
aF241
aF43
aF141
aF165
aF243
aF284
aF174
aF318
aF286
aF235
aF309
aF309
aF300
aF116
aF58
aF190
aF343
aF36
aF176
aF98
aF154
aF88
aF198
aF236
aF171
aF32
aF74
aF6
aF31
aF207
aF305
aF98
aF7
aF318
aF25
aF346
aF310
aF89
aF70
aF62
aF235
aF22
aF352
aF319
aF285
aF146
aF188
aF62
aF201
aF43
aF52
aF331
aF270
aF138
aF14
aF190
aF295
aF319
aF265
aF138
aF187
aF17
aF147
aF349
aF170
aF17
aF99
aF180
aF75
aF319
aF159
aF62
aF268
aF319
aF345
aF332
aF127
aF29
aF117
aF341
aF319
aF248
aF36
aF144
aF134
aF138
aF258
aF214
aF134
aF249
aF65
aF344
aF334
aF296
aF253
aF161
aF330
aF341
aF294
aF8
aF103
aF275
aF246
aF344
aF203
aF239
aF63
aF255
aF323
aF311
aF34
aF127
aF158
aF314
aF76
aF7
aF209
aF145
aF228
aF330
aF230
aF312
aF339
aF212
aF36
aF215
aF127
aF212
aF251
aF121
aF12
aF191
aF226
aF199
aF205
aF48
aF276
aF200
aF238
aF336
aF34
aF288
aF29
aF319
aF182
aF13
aF176
aF88
aF142
aF122
aF3
aF7
aF317
aF245
aF141
aF81
aF244
aF252
aF5
aF23
aF260
aF2
aF190
aF244
aF7
aF72
aF302
aF127
aF307
aF271
aF160
aF288
aF127
aF265
aF96
aF153
aF205
aF295
aF101
aF62
aF151
aF16
aF342
aF140
aF83
aF226
aF217
aF150
aF355
aF198
aF251
aF15
aF227
aF205
aF158
aF196
aF193
aF242
aF282
aF173
aF136
aF100
aF249
aF298
aF198
aF214
aF184
aF325
aF186
aF254
aF334
aF345
aF61
aF158
aF226
aF288
aF261
aF242
aF318
aF308
aF13
aF302
aF0
aF39
aF198
aF112
aF174
aF116
aF176
aF119
aF282
aF210
aF283
aF277
aF72
aF337
aF254
aF294
aF149
aF155
aF291
aF225
aF158
aF2
aF292
aF214
aF230
aF30
aF219
aF255
aF347
aF127
aF226
aF83
aF36
aF27
aF0
aF201
aF245
aF122
aF83
aF244
aF150
aF296
aF131
aF184
aF7
aF74
aF238
aF153
aF232
aF27
aF141
aF312
aF176
aF43
aF276
aF100
aF44
aF270
aF328
aF89
aF29
aF131
aF122
aF214
aF269
aF121
aF172
aF66
aF6
aF315
aF294
aF17
aF339
aF292
aF91
aF238
aF64
aF42
aF293
aF258
aF76
aF344
aF94
aF25
aF13
aF245
aF243
aF271
aF295
aF227
aF210
aF66
aF311
aF175
aF138
aF138
aF105
aF198
aF138
aF69
aF227
aF295
aF264
aF40
aF180
aF203
aF63
aF138
aF293
aF330
aF224
aF255
aF74
aF130
aF286
aF212
aF225
aF328
aF318
aF37
aF235
aF138
aF75
aF34
aF175
aF129
aF228
aF229
aF242
aF238
aF245
aF139
aF184
aF5
aF167
aF270
aF145
aF204
aF88
aF149
aF259
aF134
aF52
aF176
aF306
aF225
aF100
aF258
aF141
aF32
aF344
aF242
aF36
aF73
aF112
aF144
aF256
aF192
aF6
aF318
aF176
aF244
aF87
aF66
aF36
aF95
aF141
aF271
aF296
aF316
aF51
aF52
aF226
aF58
aF290
aF292
aF21
aF259
aF326
aF298
aF265
aF214
aF225
aF120
aF61
aF127
aF36
aF247
aF357
aF2
aF242
aF332
aF198
aF256
aF62
aF205
aF36
aF24
aF192
aF318
aF286
aF76
aF81
aF296
aF4
aF195
aF194
aF120
aF225
aF193
aF318
aF302
aF203
aF240
aF50
aF286
aF52
aF49
aF74
aF305
aF238
aF340
aF2
aF332
aF194
aF2
aF301
aF298
aF193
aF40
aF293
aF134
aF109
aF155
aF225
aF130
aF80
aF24
aF188
aF37
aF196
aF97
aF174
aF292
aF337
aF244
aF161
aF220
aF226
aF226
aF304
aF328
aF353
aF126
aF186
aF104
aF88
aF5
aF315
aF171
aF295
aF83
aF119
aF89
aF12
aF58
aF36
aF18
aF119
aF265
aF313
aF88
aF297
aF81
aF242
aF238
aF343
aF220
aF201
aF184
aF161
aF323
aF202
aF158
aF350
aF258
aF152
aF12
aF306
aF283
aF224
aF73
aF83
aF210
aF36
aF274
aF280
aF145
aF141
aF85
aF114
aF225
aF233
aF343
aF140
aF271
aF350
aF128
aF292
aF65
aF116
aF275
aF74
aF52
aF305
aF27
aF71
aF95
aF167
aF7
aF245
aF344
aF259
aF225
aF4
aF112
aF220
aF114
aF188
aF321
aF219
aF120
aF99
aF6
aF14
aF29
aF67
aF170
aF302
aF299
aF277
aF138
aF128
aF333
aF254
aF240
aF240
aF120
aF203
aF6
aF275
aF293
aF6
aF260
aF75
aF49
aF165
aF216
aF355
aF325
aF182
aF225
aF296
aF197
aF339
aF145
aF182
aF41
aF27
aF255
aF2
aF65
aF257
aF220
aF7
aF138
aF113
aF95
aF337
aF256
aF230
aF190
aF337
aF289
aF306
aF344
aF299
aF228
aF49
aF67
aF226
aF143
aF341
aF295
aF4
aF118
aF319
aF260
aF225
aF160
aF78
aF225
aF240
aF33
aF158
aF83
aF49
aF25
aF35
aF298
aF73
aF0
aF282
aF40
aF183
aF306
aF299
aF14
aF188
aF244
aF260
aF284
aF198
aF3
aF120
aF61
aF219
aF36
aF258
aF125
aF12
aF225
aF11
aF268
aF113
aF73
aF356
aF67
aF276
aF36
aF255
aF280
aF162
aF28
aF39
aF140
aF131
aF57
aF230
aF285
aF223
aF286
aF141
aF190
aF218
aF193
aF24
aF235
aF235
aF217
aF15
aF42
aF225
aF140
aF73
aF295
aF27
aF113
aF87
aF319
aF21
aF167
aF157
aF346
aF128
aF257
aF180
aF151
aF141
aF302
aF255
aF197
aF258
aF108
aF319
aF354
aF219
aF62
aF17
aF195
aF214
aF67
aF38
aF161
aF188
aF341
aF246
aF0
aF263
aF211
aF182
aF318
aF253
aF251
aF32
aF71
aF170
aF257
aF136
aF337
aF36
aF47
aF161
aF171
aF256
aF88
aF51
aF255
aF327
aF89
aF187
aF169
aF335
aF5
aF324
aF284
aF263
aF21
aF70
aF189
aF319
aF318
aF49
aF225
aF55
aF147
aF63
aF323
aF165
aF225
aF298
aF212
aF131
aF139
aF319
aF144
aF317
aF130
aF249
aF320
aF283
aF71
aF196
aF156
aF304
aF228
aF215
aF158
aF242
aF203
aF140
aF158
aF131
aF213
aF100
aF341
aF255
aF36
aF141
aF188
aF319
aF98
aF320
aF177
aF45
aF204
aF320
aF325
aF0
aF181
aF120
aF187
aF98
aF183
aF233
aF151
aF242
aF309
aF306
aF159
aF147
aF226
aF39
aF311
aF215
aF148
aF182
aF51
aF306
aF50
aF171
aF281
aF127
aF281
aF227
aF133
aF267
aF74
aF33
aF4
aF323
aF211
aF354
aF260
aF224
aF74
aF348
aF353
aF160
aF58
aF67
aF240
aF223
aF270
aF168
aF146
aF226
aF81
aF238
aF253
aF169
aF225
aF295
aF36
aF348
aF88
aF188
aF330
aF183
aF243
aF140
aF341
aF98
aF22
aF312
aF19
aF147
aF270
aF95
aF15
aF240
aF27
aF1
aF289
aF149
aF220
aF148
aF67
aF102
aF274
aF76
aF347
aF45
aF210
aF296
aF289
aF225
aF269
aF323
aF224
aF97
aF171
aF27
aF310
aF141
aF22
aF244
aF172
aF331
aF29
aF57
aF193
aF309
aF100
aF136
aF350
aF329
aF58
aF180
aF295
aF67
aF283
aF71
aF286
aF293
aF171
aF128
aF322
aF333
aF72
aF260
aF225
aF148
aF179
aF40
aF80
aF155
aF312
aF194
aF62
aF268
aF103
aF145
aF247
aF33
aF312
aF337
aF33
aF230
aF138
aF7
aF190
aF7
aF144
aF311
aF173
aF27
aF152
aF95
aF198
aF75
aF98
aF309
aF176
aF177
aF138
aF199
aF267
aF309
aF330
aF337
aF240
aF6
aF158
aF173
aF268
aF305
aF83
aF175
aF44
aF123
aF78
aF198
aF254
aF334
aF22
aF286
aF235
aF221
aF224
aF281
aF283
aF301
aF194
aF309
aF121
aF200
aF134
aF205
aF62
aF40
aF353
aF86
aF225
aF7
aF128
aF97
aF309
aF112
aF196
aF271
aF244
aF210
aF149
aF269
aF347
aF126
aF225
aF45
aF2
aF120
aF309
aF53
aF198
aF69
aF294
aF19
aF24
aF348
aF66
aF264
aF198
aF77
aF350
aF65
aF254
aF52
aF217
aF20
aF258
aF5
aF187
aF141
aF83
aF189
aF230
aF36
aF176
aF272
aF67
aF22
aF252
aF94
aF222
aF169
aF323
aF27
aF182
aF147
aF227
aF207
aF261
aF183
aF127
aF174
aF13
aF62
aF295
aF230
aF98
aF141
aF147
aF58
aF309
aF248
aF225
aF147
aF6
aF16
aF128
aF205
aF74
aF244
aF129
aF253
aF304
aF225
aF97
aF120
aF312
aF88
aF118
aF61
aF295
aF176
aF92
aF245
aF241
aF151
aF147
aF119
aF125
aF224
aF4
aF127
aF158
aF236
aF250
aF84
aF289
aF292
aF73
aF92
aF343
aF309
aF265
aF120
aF324
aF225
aF175
aF67
aF45
aF297
aF196
aF270
aF198
aF343
aF66
aF261
aF5
aF344
aF342
aF270
aF299
aF112
aF107
aF286
aF187
aF193
aF357
aF62
aF251
aF350
aF91
aF120
aF6
aF139
aF288
aF145
aF239
aF260
aF35
aF208
aF8
aF22
aF137
aF147
aF11
aF105
aF330
aF83
aF238
aF217
aF212
aF175
aF225
aF299
aF152
aF204
aF190
aF255
aF256
aF220
aF162
aF39
aF154
aF318
aF128
aF190
aF269
aF152
aF176
aF165
aF97
aF48
aF238
aF193
aF257
aF131
aF306
aF285
aF204
aF294
aF21
aF225
aF337
aF170
aF288
aF318
aF319
aF97
aF344
aF299
aF309
aF182
aF281
aF69
aF242
aF139
aF285
aF293
aF285
aF67
aF225
aF296
aF253
aF240
aF86
aF240
aF283
aF97
aF131
aF256
aF294
aF155
aF98
aF322
aF227
aF347
aF213
aF70
aF83
aF76
aF225
aF158
aF21
aF185
aF288
aF225
aF194
aF337
aF310
aF28
aF238
aF183
aF125
aF120
aF17
aF151
aF2
aF299
aF214
aF278
aF118
aF52
aF76
aF309
aF254
aF174
aF262
aF115
aF136
aF85
aF124
aF62
aF73
aF87
aF151
aF355
aF121
aF283
aF256
aF38
aF335
aF4
aF346
aF271
aF138
aF280
aF224
aF225
aF142
aF89
aF140
aF345
aF113
aF81
aF138
aF131
aF183
aF65
aF244
aF88
aF240
aF288
aF22
aF112
aF207
aF356
aF256
aF348
aF252
aF226
aF25
aF238
aF120
aF265
aF289
aF284
aF341
aF267
aF286
aF7
aF226
aF348
aF290
aF137
aF53
aF235
aF142
aF63
aF314
aF9
aF190
aF70
aF243
aF58
aF275
aF170
aF138
aF139
aF97
aF284
aF114
aF95
aF354
aF194
aF357
aF319
aF175
aF301
aF47
aF21
aF39
aF305
aF76
aF69
aF147
aF225
aF279
aF272
aF256
aF131
aF188
aF278
aF223
aF301
aF240
aF188
aF214
aF298
aF309
aF230
aF269
aF26
aF309
aF36
aF229
aF305
aF244
aF73
aF332
aF194
aF71
aF309
aF302
aF221
aF298
aF261
aF134
aF189
aF276
aF159
aF319
aF61
aF73
aF83
aF318
aF94
aF244
aF87
aF238
aF15
aF319
aF318
aF19
aF317
aF37
aF330
aF311
aF142
aF336
aF216
aF327
aF84
aF252
aF286
aF204
aF257
aF193
aF126
aF153
aF5
aF286
aF19
aF228
aF37
aF126
aF298
aF190
aF88
aF333
aF58
aF315
aF72
aF337
aF281
aF225
aF332
aF212
aF83
aF132
aF345
aF145
aF17
aF224
aF29
aF149
aF313
aF58
aF129
aF179
aF149
aF120
aF101
aF219
aF140
aF97
aF271
aF315
aF226
aF120
aF349
aF309
aF345
aF98
aF120
aF207
aF129
aF32
aF188
aF77
aF302
aF58
aF255
aF288
aF169
aF179
aF279
aF147
aF155
aF272
aF228
aF133
aF119
aF285
aF206
aF332
aF79
aF45
aF269
aF296
aF267
aF285
aF27
aF344
aF283
aF296
aF282
aF173
aF149
aF263
aF158
aF354
aF344
aF103
aF213
aF331
aF301
aF62
aF217
aF151
aF149
aF224
aF108
aF193
aF220
aF156
aF54
aF97
aF78
aF129
aF319
aF272
aF88
aF119
aF244
aF281
aF225
aF110
aF275
aF258
aF310
aF163
aF204
aF155
aF196
aF292
aF225
aF286
aF271
aF19
aF216
aF264
aF21
aF337
aF88
aF116
aF191
aF265
aF38
aF270
aF288
aF198
aF193
aF295
aF125
aF224
aF239
aF117
aF333
aF344
aF357
aF58
aF169
aF270
aF192
aF36
aF191
aF140
aF67
aF205
aF54
aF118
aF58
aF264
aF268
aF289
aF51
aF222
aF243
aF97
aF281
aF157
aF55
aF139
aF58
aF50
aF269
aF225
aF58
aF6
aF209
aF50
aF268
aF343
aF345
aF116
aF105
aF48
aF174
aF302
aF86
aF265
aF181
aF18
aF210
aF338
aF210
aF235
aF302
aF36
aF167
aF62
aF157
aF267
aF159
aF201
aF247
aF47
aF11
aF226
aF59
aF240
aF283
aF2
aF75
aF2
aF334
aF339
aF12
aF99
aF345
aF332
aF136
aF319
aF97
aF340
aF235
aF45
aF75
aF168
aI5877
I6821
tp3
a((lp4
F169
aF294
aF161
aF100
aF140
aF165
aF118
aF24
aF286
aF293
aF202
aF130
aF242
aF78
aF59
aF86
aF320
aF123
aF248
aF157
aF83
aF257
aF203
aF36
aF355
aF35
aF188
aF165
aF52
aF100
aF332
aF272
aF348
aF44
aF82
aF107
aF199
aF34
aF33
aF120
aF152
aF300
aF11
aF317
aF184
aF8
aF317
aF342
aF167
aF70
aF150
aF149
aF93
aF347
aF274
aF186
aF49
aF353
aF37
aF67
aF46
aF120
aF42
aF206
aF320
aF101
aF15
aF265
aF46
aF111
aF45
aF236
aF21
aF168
aF348
aF16
aF249
aF260
aF272
aF93
aF83
aF265
aF149
aF314
aF156
aF143
aF68
aF11
aF120
aF262
aF218
aF190
aF255
aF355
aF287
aF171
aF236
aF313
aF82
aF208
aF27
aF206
aF265
aF43
aF40
aF315
aF88
aF346
aF77
aF112
aF146
aF62
aF211
aF277
aF247
aF69
aF150
aF197
aF55
aF317
aF334
aF214
aF110
aF80
aF338
aF242
aF343
aF319
aF32
aF308
aF87
aF132
aF265
aF254
aF218
aF168
aF307
aF225
aF318
aF36
aF277
aF199
aF83
aF158
aF214
aF83
aF215
aF158
aF345
aF258
aF203
aF71
aF53
aF221
aF24
aF249
aF42
aF127
aF46
aF309
aF313
aF187
aF343
aF150
aF282
aF310
aF42
aF313
aF194
aF231
aF282
aF17
aF165
aF284
aF249
aF185
aF13
aF187
aF154
aF83
aF287
aF157
aF66
aF219
aF276
aF110
aF214
aF278
aF69
aF236
aF182
aF355
aF354
aF305
aF343
aF39
aF45
aF82
aF337
aF159
aF207
aF93
aF343
aF128
aF175
aF150
aF69
aF112
aF255
aF310
aF85
aF301
aF229
aF263
aF285
aF338
aF209
aF334
aF312
aF237
aF239
aF43
aF83
aF218
aF326
aF136
aF221
aF194
aF87
aF152
aF190
aF300
aF331
aF132
aF31
aF3
aF81
aF143
aF307
aF342
aF335
aF343
aF194
aF190
aF125
aF352
aF176
aF112
aF250
aF83
aF343
aF6
aF281
aF134
aF112
aF40
aF159
aF305
aF100
aF193
aF71
aF149
aF69
aF190
aF168
aF282
aF281
aF169
aF103
aF78
aF155
aF262
aF18
aF258
aF168
aF115
aF99
aF236
aF247
aF320
aF135
aF183
aF66
aF141
aF352
aF24
aF137
aF83
aF242
aF120
aF105
aF8
aF56
aF18
aF202
aF217
aF33
aF353
aF204
aF236
aF350
aF268
aF55
aF239
aF191
aF226
aF233
aF61
aF274
aF343
aF130
aF159
aF197
aF187
aF237
aF16
aF350
aF312
aF218
aF40
aF264
aF120
aF262
aF3
aF248
aF108
aF240
aF130
aF136
aF175
aF148
aF62
aF353
aF339
aF81
aF343
aF317
aF63
aF48
aF247
aF332
aF312
aF42
aF221
aF132
aF45
aF341
aF335
aF139
aF102
aF47
aF48
aF352
aF191
aF246
aF344
aF167
aF152
aF269
aF288
aF95
aF334
aF318
aF15
aF299
aF274
aF264
aF173
aF148
aF109
aF266
aF281
aF343
aF199
aF81
aF297
aF154
aF353
aF44
aF268
aF174
aF278
aF252
aF201
aF171
aF331
aF300
aF265
aF168
aF175
aF81
aF232
aF343
aF226
aF52
aF24
aF152
aF229
aF174
aF234
aF303
aF41
aF102
aF115
aF343
aF272
aF170
aF197
aF266
aF101
aF304
aF269
aF256
aF335
aF136
aF89
aF99
aF30
aF50
aF44
aF355
aF146
aF175
aF86
aF69
aF354
aF185
aF157
aF148
aF321
aF304
aF227
aF313
aF45
aF172
aF187
aF229
aF109
aF288
aF236
aF231
aF163
aF18
aF193
aF47
aF215
aF69
aF346
aF265
aF81
aF69
aF180
aF149
aF11
aF260
aF165
aF81
aF228
aF36
aF342
aF202
aF180
aF264
aF135
aF24
aF46
aF3
aF198
aF14
aF313
aF148
aF289
aF78
aF245
aF236
aF174
aF194
aF310
aF246
aF43
aF24
aF32
aF168
aF277
aF343
aF140
aF236
aF112
aF312
aF277
aF260
aF355
aF35
aF271
aF28
aF310
aF276
aF45
aF251
aF123
aF94
aF27
aF187
aF24
aF3
aF181
aF130
aF355
aF341
aF348
aF347
aF292
aF348
aF94
aF342
aF241
aF101
aF284
aF159
aF193
aF315
aF130
aF310
aF308
aF317
aF218
aF307
aF277
aF343
aF143
aF59
aF205
aF156
aF94
aF310
aF218
aF164
aF37
aF86
aF155
aF208
aF218
aF153
aF337
aF352
aF2
aF258
aF124
aF90
aF312
aF352
aF267
aF185
aF94
aF43
aF288
aF273
aF222
aF357
aF103
aF34
aF46
aF189
aF11
aF120
aF12
aF6
aF158
aF8
aF164
aF134
aF321
aF168
aF17
aF141
aF264
aF61
aF94
aF166
aF0
aF115
aF317
aF217
aF329
aF117
aF292
aF256
aF42
aF170
aF344
aF81
aF41
aF355
aF342
aF135
aF240
aF296
aF135
aF81
aF3
aF180
aF193
aF24
aF242
aF199
aF150
aF234
aF280
aF300
aF11
aF209
aF348
aF78
aF271
aF156
aF35
aF73
aF184
aF346
aF260
aF245
aF216
aF168
aF239
aF138
aF93
aF283
aF298
aF314
aF45
aF16
aF317
aF0
aF17
aF334
aF292
aF165
aF168
aF222
aF262
aF175
aF111
aF203
aF107
aF94
aF189
aF318
aF304
aF282
aF265
aF49
aF202
aF154
aF41
aF83
aF251
aF148
aF83
aF288
aF262
aF190
aF174
aF260
aF168
aF349
aF97
aF255
aF133
aF312
aF183
aF284
aF216
aF169
aF161
aF188
aF327
aF167
aF132
aF69
aF300
aF101
aF173
aF83
aF245
aF313
aF352
aF136
aF242
aF174
aF98
aF40
aF325
aF66
aF218
aF243
aF7
aF193
aF239
aF42
aF93
aF318
aF93
aF107
aF109
aF100
aF289
aF160
aF120
aF61
aF11
aF130
aF313
aF130
aF208
aF265
aF94
aF315
aF56
aF323
aF325
aF105
aF97
aF264
aF139
aF101
aF293
aF50
aF35
aF94
aF239
aF14
aF287
aF123
aF357
aF286
aF187
aF143
aF123
aF137
aF81
aF120
aF305
aF253
aF29
aF186
aF81
aF343
aF214
aF277
aF344
aF103
aF162
aF272
aF146
aF120
aF289
aF103
aF1
aF266
aF149
aF166
aF281
aF266
aF258
aF268
aF275
aF159
aF95
aF203
aF185
aF93
aF346
aF209
aF152
aF17
aF164
aF91
aF236
aF272
aF185
aF98
aF158
aF112
aF46
aF203
aF99
aF330
aF355
aF324
aF346
aF193
aF270
aF152
aF140
aF217
aF288
aF343
aF96
aF194
aF345
aF247
aF219
aF218
aF247
aF309
aF350
aF33
aF221
aF198
aF122
aF150
aF66
aF252
aF170
aF11
aF339
aF4
aF24
aF11
aF353
aF132
aF157
aF137
aF66
aF245
aF188
aF288
aF347
aF273
aF313
aF112
aF320
aF56
aF146
aF185
aF354
aF292
aF149
aF320
aF340
aF187
aF341
aF231
aF249
aF304
aF313
aF309
aF258
aF102
aF0
aF69
aF90
aF130
aF318
aF236
aF85
aF346
aF139
aF98
aF1
aF254
aF121
aF353
aF338
aF159
aF173
aF232
aF62
aF290
aF17
aF218
aF157
aF205
aF40
aF135
aF272
aF241
aF110
aF276
aF338
aF317
aF153
aF36
aF8
aF69
aF233
aF154
aF245
aF88
aF61
aF329
aF44
aF333
aF159
aF88
aF11
aF63
aF28
aF150
aF148
aF226
aF215
aF211
aF201
aF205
aF241
aF239
aF131
aF159
aF343
aF320
aF2
aF171
aF308
aF123
aF136
aF199
aF229
aF3
aF232
aF32
aF160
aF214
aF265
aF9
aF185
aF101
aF349
aF223
aF73
aF111
aF134
aF183
aF168
aF256
aF308
aF41
aF8
aF307
aF338
aF209
aF43
aF129
aF250
aF219
aF82
aF317
aF343
aF272
aF280
aF208
aF45
aF131
aF164
aF313
aF205
aF127
aF61
aF274
aF172
aF8
aF69
aF343
aF342
aF313
aF93
aF79
aF234
aF142
aF49
aF175
aF257
aF45
aF207
aF135
aF63
aF79
aF277
aF88
aF132
aF79
aF81
aF146
aF228
aF197
aF27
aF343
aF320
aF233
aF81
aF265
aF3
aF8
aF132
aF347
aF15
aF45
aF109
aF316
aF50
aF36
aF202
aF23
aF247
aF165
aF6
aF305
aF313
aF338
aF191
aF24
aF120
aF70
aF187
aF343
aF352
aF269
aF134
aF53
aF249
aF345
aF143
aF217
aF340
aF190
aF184
aF45
aF120
aF140
aF28
aF189
aF218
aF84
aF101
aF291
aF103
aF313
aF258
aF93
aF326
aF108
aF248
aF352
aF185
aF79
aF130
aF14
aF193
aF269
aF170
aF231
aF33
aF317
aF105
aF329
aF32
aF75
aF228
aF331
aF37
aF235
aF190
aF268
aF101
aF224
aF340
aF137
aF8
aF160
aF291
aF44
aF218
aF34
aF82
aF290
aF300
aF88
aF171
aF247
aF355
aF342
aF8
aF317
aF317
aF225
aF318
aF29
aF334
aF345
aF274
aF121
aF274
aF98
aF127
aF274
aF349
aF245
aF197
aF332
aF149
aF242
aF138
aF316
aF269
aF32
aF313
aF49
aF292
aF113
aF343
aF268
aF93
aF231
aF9
aF43
aF347
aF24
aF223
aF134
aF321
aF272
aF61
aF337
aF236
aF110
aF3
aF289
aF165
aF107
aF136
aF168
aF326
aF152
aF112
aF11
aF282
aF56
aF154
aF138
aF179
aF341
aF347
aF352
aF74
aF239
aF143
aF279
aF334
aF338
aF83
aF307
aF202
aF126
aF159
aF277
aF207
aF45
aF315
aF111
aF75
aF248
aF8
aF203
aF98
aF274
aF316
aF24
aF220
aF223
aF287
aF258
aF140
aF216
aF343
aF317
aF341
aF206
aF317
aF159
aF149
aF148
aF343
aF236
aF223
aF29
aF239
aF34
aF138
aF307
aF342
aF160
aF100
aF226
aF315
aF191
aF343
aF187
aF189
aF203
aF136
aF349
aF352
aF157
aF330
aF21
aF180
aF161
aF221
aF313
aF288
aF257
aF45
aF266
aF250
aF188
aF70
aF254
aF75
aF159
aF170
aF146
aF194
aF94
aF236
aF62
aF174
aF41
aF9
aF350
aF284
aF103
aF21
aF170
aF273
aF23
aF198
aF119
aF12
aF228
aF233
aF179
aF332
aF138
aF36
aF11
aF162
aF86
aF287
aF139
aF289
aF172
aF316
aF194
aF149
aF325
aF175
aF36
aF15
aF56
aF41
aF94
aF297
aF111
aF249
aF68
aF317
aF310
aF18
aF341
aF158
aF114
aF313
aF202
aF170
aF288
aF254
aF47
aF271
aF81
aF112
aF113
aF236
aF304
aF49
aF187
aF330
aF209
aF202
aF325
aF97
aF318
aF37
aF9
aF50
aF216
aF347
aF320
aF216
aF284
aF103
aF208
aF123
aF16
aF343
aF3
aF55
aF203
aF342
aF285
aF153
aF8
aF305
aF86
aF315
aF77
aF348
aF211
aF333
aF45
aF203
aF231
aF343
aF264
aF239
aF170
aF56
aF278
aF132
aF282
aF305
aF5
aF46
aF6
aF136
aF8
aF236
aF326
aF173
aF242
aF261
aF258
aF313
aF337
aF69
aF83
aF68
aF46
aF190
aF83
aF102
aF328
aF42
aF16
aF316
aF127
aF317
aF21
aF343
aF169
aF310
aF132
aF335
aF317
aF109
aF83
aF193
aF187
aF112
aF45
aF199
aF134
aF326
aF134
aF290
aF255
aF245
aF272
aF138
aF183
aF170
aF94
aF215
aF11
aF300
aF325
aF120
aF149
aF143
aF125
aF198
aF272
aF49
aF260
aF248
aF103
aF2
aF193
aF343
aF272
aF310
aF42
aF41
aF93
aF260
aF145
aF110
aF334
aF194
aF227
aF46
aF131
aF1
aF329
aF197
aF78
aF8
aF340
aF69
aF69
aF285
aF19
aF231
aF338
aF242
aF193
aF237
aF345
aF41
aF86
aF83
aF36
aF187
aF264
aF309
aF154
aF240
aF107
aF208
aF354
aF17
aF193
aF148
aF219
aF288
aF214
aF189
aF266
aF45
aF221
aF17
aF43
aF203
aF239
aF238
aF4
aF72
aF44
aF231
aF258
aF288
aF150
aF213
aF321
aF69
aF111
aF36
aF316
aF244
aF159
aF302
aF69
aF348
aF118
aF265
aF300
aF110
aF293
aF83
aF0
aF242
aF103
aF186
aF323
aF79
aF149
aF209
aF100
aF120
aF307
aF119
aF218
aF218
aF134
aF277
aF63
aF302
aF168
aF42
aF197
aF227
aF158
aF247
aF128
aF160
aF323
aF216
aF287
aF261
aF75
aF108
aF175
aF209
aF321
aF128
aF27
aF207
aF24
aF317
aF143
aF297
aF268
aF44
aF336
aF277
aF143
aF50
aF355
aF343
aF173
aF317
aF41
aF156
aF69
aF277
aF59
aF185
aF198
aF199
aF115
aF62
aF321
aF185
aF45
aF310
aF226
aF86
aF3
aF103
aF161
aF24
aF338
aF262
aF338
aF231
aF321
aF103
aF185
aF288
aF288
aF110
aF135
aF144
aF123
aF330
aF42
aF236
aF44
aF155
aF215
aF80
aF261
aF168
aF98
aF310
aF247
aF28
aF123
aF97
aF24
aF339
aF188
aF193
aF320
aF267
aF149
aF43
aF286
aF300
aF182
aF56
aF203
aF91
aF104
aF45
aF245
aF79
aF76
aF283
aF79
aF202
aF273
aF343
aF313
aF315
aF349
aF46
aF97
aF352
aF64
aF319
aF288
aF199
aF146
aF97
aF133
aF239
aF137
aF50
aF238
aF32
aF36
aF333
aF41
aF8
aF216
aF86
aF11
aF170
aF87
aF255
aF213
aF134
aF169
aF160
aF292
aF71
aF223
aF289
aF46
aF277
aF304
aF334
aF4
aF52
aF330
aF251
aF203
aF317
aF277
aF280
aF15
aF157
aF36
aF307
aF323
aF288
aF349
aF254
aF37
aF247
aF297
aF113
aF307
aF146
aF336
aF110
aF60
aF355
aF353
aF250
aF15
aF17
aF188
aF138
aF335
aF44
aF50
aF274
aF240
aF65
aF242
aF131
aF347
aF29
aF231
aF101
aF308
aF108
aF338
aF307
aF275
aF73
aF66
aF93
aF260
aF347
aF332
aF313
aF317
aF170
aF56
aF172
aF136
aF247
aF277
aF42
aF115
aF73
aF34
aF27
aF50
aF23
aF166
aF108
aF236
aF247
aF49
aF278
aF42
aF347
aF313
aF334
aF2
aF236
aF254
aF86
aF99
aF300
aF45
aF272
aF84
aF154
aF95
aF264
aF153
aF78
aF202
aF37
aF155
aF183
aF332
aF55
aF157
aF329
aF213
aF8
aF307
aF1
aF161
aF248
aF289
aF60
aF266
aF29
aF264
aF219
aF107
aF12
aF197
aF63
aF207
aF271
aF69
aF86
aF24
aF234
aF265
aF131
aF206
aF260
aF81
aF164
aF225
aF92
aF35
aF12
aF281
aF68
aF343
aF353
aF88
aF183
aF238
aF309
aF203
aF158
aF225
aF202
aF102
aF236
aF161
aF312
aF281
aF313
aF201
aF94
aF11
aF73
aF114
aF183
aF244
aF6
aF24
aF343
aF190
aF169
aF98
aF209
aF320
aF215
aF81
aF69
aF262
aF236
aF8
aF312
aF188
aF183
aF198
aF308
aF3
aF292
aF295
aF357
aF334
aF79
aF313
aF113
aF273
aF81
aF118
aF97
aF99
aF209
aF110
aF146
aF213
aF8
aF126
aF189
aF343
aF290
aF353
aF343
aF103
aF242
aF344
aF100
aF287
aF203
aF315
aF242
aF269
aF331
aF288
aF236
aF216
aF288
aF105
aF107
aF170
aF158
aF347
aF257
aF62
aF215
aF234
aF289
aF150
aF72
aF63
aF158
aF160
aF270
aF311
aF58
aF287
aF203
aF300
aF120
aF335
aF193
aF337
aF187
aF132
aF221
aF225
aF135
aF96
aF262
aF12
aF269
aF300
aF176
aF343
aF165
aF138
aF154
aF170
aF66
aF320
aF92
aF159
aF231
aF138
aF268
aF204
aF316
aF277
aF16
aF88
aF293
aF236
aF264
aF320
aF268
aF313
aF64
aF166
aF69
aF236
aF44
aF288
aF197
aF183
aF233
aF247
aF25
aF214
aF124
aF253
aF107
aF339
aF83
aF46
aF231
aF262
aF21
aF44
aF216
aF202
aF34
aF353
aF16
aF189
aF134
aF3
aF205
aF240
aF173
aF75
aF78
aF185
aF331
aF237
aF160
aF198
aF180
aF295
aF143
aF101
aF6
aF8
aF332
aF152
aF206
aF262
aF251
aF245
aF191
aF165
aF198
aF81
aF337
aF331
aF239
aF35
aF343
aF250
aF26
aF119
aF254
aF305
aF150
aF34
aF22
aF318
aF353
aF6
aF191
aF227
aF50
aF168
aF261
aF236
aF41
aF146
aF299
aF224
aF85
aF240
aF45
aF319
aF31
aF33
aF236
aF116
aF139
aF254
aF280
aF324
aF275
aF69
aF75
aF116
aF209
aF143
aF165
aF339
aF149
aF8
aF307
aF150
aF88
aF46
aF232
aF275
aF100
aF350
aF349
aF33
aF43
aF271
aF185
aF88
aF69
aF264
aF349
aF308
aF227
aF135
aF313
aF197
aF164
aF69
aF155
aF150
aF313
aF330
aF81
aF323
aF3
aF188
aF220
aF123
aF304
aF8
aF169
aF103
aF23
aF216
aF236
aF21
aF333
aF297
aF45
aF55
aF350
aF287
aF338
aF101
aF256
aF184
aF341
aF80
aF115
aF43
aF72
aF299
aF42
aF11
aF87
aF140
aF156
aF308
aF214
aF191
aF321
aF197
aF296
aF308
aF233
aF262
aF155
aF125
aF267
aF246
aF50
aF234
aF225
aF188
aF12
aF236
aF325
aF46
aF348
aF97
aF236
aF354
aF198
aF226
aF277
aF58
aF69
aF211
aF288
aF343
aF181
aF247
aF343
aF177
aF248
aF205
aF69
aF146
aF200
aF281
aF159
aF315
aF251
aF44
aF114
aF187
aF134
aF357
aF40
aF121
aF236
aF1
aF112
aF327
aF247
aF100
aF156
aF70
aF86
aF300
aF143
aF306
aF334
aF60
aF277
aF123
aF108
aF32
aF100
aF293
aF88
aF44
aF10
aF23
aF198
aF347
aF11
aF353
aF320
aF300
aF247
aF155
aF241
aF305
aF328
aF338
aF78
aF32
aF31
aF312
aF326
aF134
aF350
aF53
aF61
aF60
aF207
aF216
aF256
aF300
aF229
aF353
aF102
aF236
aF265
aF93
aF205
aF207
aF285
aF46
aF285
aF143
aF338
aF211
aF278
aF69
aF199
aF171
aF349
aF107
aF249
aF35
aF188
aF337
aF343
aF318
aF79
aF41
aF15
aF344
aF165
aF75
aF349
aF278
aF267
aF173
aF326
aF120
aF185
aF117
aF68
aF305
aF206
aF150
aF338
aF310
aF285
aF148
aF94
aF134
aF217
aF131
aF318
aF10
aF349
aF220
aF194
aF101
aF81
aF41
aF338
aF158
aF206
aF110
aF27
aF69
aF53
aF320
aF11
aF211
aF345
aF234
aF17
aF148
aF337
aF138
aF296
aF209
aF150
aF148
aF331
aF349
aF233
aF239
aF164
aF190
aF208
aF221
aF248
aF316
aF123
aF73
aF159
aF103
aF12
aF227
aF70
aF147
aF75
aF260
aF343
aF78
aF325
aF60
aF174
aF145
aF264
aF69
aF132
aF274
aF174
aF204
aF79
aF45
aF79
aF206
aF8
aF339
aF206
aF351
aF200
aF331
aF318
aF17
aF213
aF251
aF220
aF132
aF8
aF272
aF203
aF242
aF81
aF334
aF319
aF240
aF225
aF205
aF206
aF348
aF45
aF171
aF253
aF257
aF247
aF37
aF103
aF85
aF177
aF203
aF143
aF238
aF342
aF83
aF242
aF92
aF95
aF305
aF136
aF28
aF180
aF67
aF291
aF101
aF19
aF80
aF218
aF285
aF224
aF247
aF265
aF256
aF318
aF297
aF236
aF287
aF262
aF272
aF33
aF45
aF239
aF29
aF349
aF278
aF285
aF157
aF125
aF154
aF203
aF139
aF3
aF32
aF199
aF317
aF335
aF249
aF256
aF199
aF343
aF263
aF130
aF161
aF149
aF99
aF118
aF3
aF313
aF138
aF214
aF56
aF120
aF39
aF134
aF3
aF350
aF132
aF312
aF46
aF120
aF127
aF11
aF78
aF326
aF147
aF109
aF329
aF194
aF142
aF330
aF336
aF216
aF247
aF77
aF149
aF94
aF68
aF138
aF345
aF333
aF211
aF130
aF171
aF191
aF222
aF124
aF216
aF214
aF221
aF105
aF8
aF326
aF236
aF198
aF138
aF240
aF45
aF11
aF205
aF15
aF318
aF307
aF85
aF234
aF233
aF126
aF228
aF95
aF318
aF70
aF182
aF86
aF3
aF158
aF166
aF193
aF139
aF94
aF306
aF236
aF111
aF305
aF148
aF332
aF356
aF143
aF351
aF229
aF70
aF307
aF337
aF8
aF262
aF179
aF46
aF23
aF339
aF7
aF325
aF94
aF352
aF305
aF268
aF55
aF285
aF112
aF310
aF156
aF332
aF32
aF110
aF8
aF143
aF135
aF118
aF152
aF171
aF214
aF211
aF184
aF206
aF337
aF130
aF342
aF56
aF245
aF168
aF182
aF352
aF44
aF264
aF103
aF219
aF2
aF343
aF10
aF256
aF66
aF260
aF64
aF265
aF269
aF41
aF97
aF219
aF317
aF120
aF159
aF98
aF50
aF101
aF153
aF304
aF81
aF146
aF86
aF28
aF66
aF89
aF300
aF136
aF149
aF255
aF267
aF305
aF176
aF168
aF18
aF132
aF152
aF305
aF143
aF189
aF15
aF310
aF182
aF110
aF8
aF132
aF205
aF291
aF308
aF10
aF176
aF321
aF94
aF136
aF101
aF221
aF3
aF236
aF159
aF49
aF329
aF256
aF232
aF166
aF173
aF218
aF134
aF181
aF208
aF148
aF269
aF257
aF168
aF150
aF21
aF133
aF82
aF159
aF243
aF79
aF342
aF11
aF151
aF105
aF217
aF352
aF312
aF317
aF253
aF272
aF94
aF155
aF213
aF139
aF269
aF149
aF233
aF128
aF240
aF43
aF294
aF346
aF317
aF209
aF218
aF120
aF36
aF170
aF330
aF307
aF87
aF314
aF72
aF247
aF24
aF330
aF168
aF260
aF254
aF239
aF222
aF318
aF215
aF231
aF125
aF49
aF256
aF342
aF226
aF62
aF175
aF228
aF72
aF317
aF287
aF17
aF235
aF83
aF11
aF97
aF243
aF11
aF99
aF78
aF341
aF243
aF331
aF241
aF222
aF198
aF27
aF15
aF316
aF18
aF156
aF321
aF200
aF122
aF348
aF188
aF96
aF337
aF223
aF102
aF135
aF18
aF226
aF170
aF249
aF81
aF175
aF234
aF155
aF266
aF172
aF46
aF293
aF107
aF56
aF215
aF11
aF327
aF8
aF307
aF26
aF139
aF15
aF18
aF174
aF232
aF199
aF140
aF347
aF157
aF21
aF78
aF277
aF334
aF223
aF3
aF132
aF78
aF251
aF330
aF11
aF198
aF204
aF199
aF100
aF313
aF281
aF81
aF269
aF332
aF126
aF45
aF300
aF79
aF154
aF292
aF256
aF332
aF68
aF72
aF15
aF330
aF335
aF300
aF277
aF239
aF16
aF45
aF110
aF281
aF96
aF343
aF143
aF149
aF168
aF239
aF273
aF112
aF224
aF66
aF258
aF207
aF146
aF320
aF281
aF44
aF242
aF292
aF238
aF155
aF113
aF328
aF218
aF242
aF70
aF45
aF137
aF308
aF140
aF320
aF46
aF154
aF262
aF107
aF65
aF266
aF113
aF179
aF79
aF160
aF103
aF89
aF264
aF37
aF228
aF100
aF72
aF94
aF339
aF49
aF319
aF319
aF175
aF152
aF165
aF107
aF317
aF28
aF300
aF199
aF70
aF226
aF298
aF166
aF124
aF265
aF40
aF138
aF241
aF56
aF236
aF274
aF143
aF288
aF203
aF306
aF318
aF40
aF146
aF206
aF101
aF193
aF338
aF123
aF135
aF41
aF56
aF255
aF58
aF24
aF140
aF109
aF123
aF191
aF60
aF173
aF326
aF44
aF236
aF35
aF120
aF324
aF164
aF206
aF23
aF325
aF343
aF164
aF308
aF325
aF274
aF41
aF313
aF8
aF68
aF164
aF152
aF131
aF242
aF208
aF164
aF125
aF15
aF273
aF300
aF70
aF10
aF182
aF218
aF190
aF31
aF219
aF169
aF50
aF315
aF272
aF289
aF287
aF28
aF272
aF136
aF350
aF118
aF93
aF239
aF79
aF198
aF132
aF240
aF100
aF310
aF52
aF294
aF272
aF316
aF132
aF112
aF318
aF123
aF254
aF209
aF123
aF157
aF299
aF264
aF110
aF104
aF327
aF83
aF227
aF134
aF132
aF250
aF337
aF212
aF45
aF257
aF236
aF203
aF347
aF197
aF120
aF76
aF69
aF80
aF70
aF285
aF203
aF313
aF304
aF28
aF140
aF212
aF93
aF21
aF154
aF290
aF321
aF209
aF248
aF356
aF46
aF71
aF331
aF48
aF138
aF228
aF126
aF71
aF325
aF280
aF341
aF270
aF343
aF9
aF170
aF132
aF112
aF237
aF353
aF205
aF349
aF354
aF159
aF0
aF34
aF44
aF68
aF46
aF69
aF296
aF83
aF93
aF265
aF148
aF66
aF203
aF347
aF112
aF228
aF339
aF69
aF206
aF353
aF251
aF1
aF343
aF274
aF132
aF110
aF8
aF278
aF11
aF226
aF24
aF203
aF234
aF262
aF287
aF148
aF199
aF50
aF253
aF201
aF124
aF98
aF69
aF60
aF272
aF321
aF313
aF132
aF132
aF281
aF310
aF241
aF156
aF60
aF269
aF234
aF214
aF275
aF164
aF274
aF357
aF130
aF237
aF165
aF91
aF310
aF203
aF63
aF130
aF189
aF3
aF170
aF93
aF317
aF68
aF135
aF11
aF226
aF232
aF189
aF158
aF332
aF125
aF2
aF15
aF133
aF253
aF342
aF331
aF273
aF291
aF122
aF135
aF188
aF241
aF319
aF103
aF355
aF94
aF262
aF154
aF50
aF76
aF300
aF318
aF212
aF138
aF312
aF179
aF11
aF309
aF264
aF145
aF355
aF336
aF156
aF274
aF158
aF294
aF272
aF203
aF300
aF300
aF168
aF236
aF281
aF7
aF236
aF334
aF162
aF274
aF123
aF23
aF308
aF299
aF138
aF332
aF198
aF152
aF68
aF272
aF66
aF155
aF42
aF159
aF203
aF300
aF347
aF56
aF356
aF275
aF26
aF100
aF225
aF15
aF265
aF332
aF93
aF84
aF355
aF152
aF264
aF199
aF97
aF6
aF285
aF337
aF1
aF40
aF343
aF83
aF345
aF229
aF177
aF261
aF218
aF169
aF166
aF23
aF262
aF254
aF260
aF317
aF15
aF319
aF32
aF266
aF304
aF58
aF277
aF202
aF242
aF104
aF272
aF132
aF313
aF90
aF130
aF41
aF223
aF154
aF94
aF331
aF43
aF44
aF256
aF343
aF203
aF231
aF171
aF109
aF324
aF243
aF355
aF168
aF9
aF116
aF46
aF24
aF69
aF206
aF224
aF95
aF164
aF227
aF2
aF355
aF206
aF37
aF217
aF193
aF11
aF45
aF45
aF72
aF224
aF246
aF246
aF94
aF15
aF103
aF103
aF123
aF330
aF93
aF10
aF313
aF255
aF258
aF83
aF170
aF136
aF264
aF10
aF70
aF317
aF326
aF229
aF148
aF242
aF165
aF8
aF134
aF313
aF14
aF33
aF140
aF50
aF313
aF256
aF15
aF321
aF139
aF299
aF347
aF203
aF116
aF242
aF225
aF128
aF66
aF247
aF326
aF319
aF351
aF274
aF23
aF309
aF140
aF185
aF103
aF267
aF149
aF66
aF298
aF126
aF317
aF333
aF352
aF107
aF149
aF116
aF294
aF250
aF14
aF60
aF69
aF203
aF58
aF112
aF110
aF260
aF343
aF304
aF10
aF258
aF232
aF86
aF335
aF159
aF69
aF33
aF165
aF36
aF264
aF342
aF68
aF69
aF174
aF40
aF31
aF68
aF182
aF216
aF97
aF47
aF188
aF150
aF166
aF225
aF15
aF265
aF134
aF199
aF355
aF203
aF326
aF324
aF24
aF23
aF228
aF82
aF206
aF236
aF313
aF56
aF48
aF156
aF246
aF256
aF221
aF196
aF308
aF339
aF21
aF319
aF207
aF168
aF245
aF135
aF343
aF242
aF134
aF255
aF338
aF73
aF141
aF351
aF70
aF40
aF247
aF158
aF304
aF226
aF300
aF59
aF313
aF3
aF19
aF313
aF0
aF319
aF220
aF332
aF305
aF8
aF9
aF314
aF46
aF277
aF134
aF117
aF308
aF191
aF223
aF319
aF94
aF125
aF197
aF199
aF82
aF336
aF262
aF46
aF331
aF333
aF239
aF65
aF6
aF120
aF353
aF134
aF80
aF217
aF334
aF44
aF138
aF140
aF201
aF299
aF66
aF94
aF45
aF235
aF35
aF350
aF126
aF161
aF130
aF350
aF8
aF42
aF8
aF94
aF149
aF253
aF275
aF60
aF203
aF208
aF110
aF306
aF232
aF347
aF247
aF81
aF42
aF300
aF343
aF275
aF343
aF232
aF250
aF255
aF289
aF300
aF236
aF83
aF208
aF185
aF282
aF203
aF246
aF69
aF213
aF310
aF224
aF27
aF214
aF11
aF338
aF184
aF12
aF118
aF201
aF33
aF125
aF224
aF281
aF3
aF130
aF79
aF146
aF195
aF156
aF17
aF6
aF208
aF133
aF218
aF264
aF117
aF299
aF143
aF131
aF81
aF36
aF221
aF343
aF284
aF147
aF352
aF216
aF132
aF173
aF187
aF70
aF227
aF273
aF100
aF17
aF209
aF262
aF313
aF82
aF287
aF70
aF163
aF280
aF30
aF134
aF58
aF134
aF353
aF285
aF46
aF276
aF333
aF260
aF69
aF203
aF248
aF126
aF198
aF247
aF44
aF288
aF353
aF59
aF253
aF136
aF219
aF135
aF61
aF102
aF132
aF50
aF146
aF95
aF79
aF296
aF261
aF150
aF36
aF188
aF338
aF351
aF334
aF29
aF36
aF194
aF226
aF220
aF86
aF3
aF102
aF131
aF330
aF277
aF46
aF11
aF96
aF216
aF158
aF150
aF335
aF130
aF234
aF249
aF289
aF327
aF154
aF54
aF166
aF352
aF40
aF273
aF217
aF3
aF260
aF189
aF266
aF94
aF288
aF357
aF279
aF191
aF313
aF16
aF179
aF214
aF315
aF206
aF131
aF277
aF280
aF208
aF292
aF234
aF132
aF214
aF133
aF76
aF11
aF326
aF8
aF11
aF282
aF197
aF41
aF193
aF340
aF8
aF218
aF81
aF41
aF234
aF299
aF289
aF327
aF343
aF92
aF343
aF265
aF216
aF287
aF197
aF346
aF56
aF111
aF3
aF152
aF130
aF337
aF96
aF226
aF24
aF245
aF258
aF238
aF277
aF196
aF11
aF274
aF160
aF113
aF133
aF157
aF24
aF93
aF335
aF338
aF264
aF6
aF258
aF357
aF44
aF103
aF11
aF17
aF346
aF236
aF112
aF76
aF231
aF239
aF318
aF176
aF242
aF69
aF262
aF236
aF36
aF225
aF98
aF240
aF55
aF43
aF173
aF332
aF100
aF317
aF175
aF39
aF348
aF248
aF111
aF343
aF60
aF260
aF37
aF146
aF89
aF285
aF143
aF98
aF78
aF155
aF19
aF299
aF100
aF299
aF344
aF72
aF305
aF175
aF14
aF135
aF131
aF315
aF23
aF251
aF94
aF343
aF318
aF69
aF112
aF224
aF35
aF216
aF154
aF332
aF41
aF329
aF342
aF280
aF3
aF41
aF237
aF120
aF149
aF214
aF0
aF53
aF76
aF11
aF95
aF154
aF131
aF256
aF75
aF8
aF267
aF122
aF165
aF239
aF160
aF138
aF317
aF174
aF66
aF40
aF255
aF40
aF55
aF282
aF94
aF142
aF94
aF45
aF308
aF307
aF191
aF247
aF224
aF164
aF154
aF276
aF111
aF285
aF242
aF183
aF199
aF122
aF200
aF24
aF329
aF273
aF299
aF337
aF348
aF170
aF62
aF203
aF276
aF236
aF332
aF232
aF95
aF313
aF314
aF335
aF27
aF269
aF79
aF326
aF262
aF47
aF221
aF83
aF140
aF11
aF157
aF188
aF206
aF132
aF208
aF330
aF88
aF242
aF292
aF332
aF82
aF292
aF190
aF355
aF53
aF221
aF298
aF328
aF239
aF316
aF165
aF193
aF325
aF118
aF46
aF355
aF188
aF160
aF7
aF1
aF205
aF75
aF133
aF234
aF324
aF101
aF165
aF36
aF341
aF288
aF338
aF313
aF329
aF181
aF98
aF39
aF112
aF81
aF99
aF30
aF9
aF93
aF168
aF41
aF159
aF27
aF31
aF85
aF14
aF211
aF108
aF5
aF308
aF47
aF297
aF103
aF278
aF46
aF232
aF0
aF180
aF169
aF135
aF217
aF354
aF313
aF61
aF93
aF132
aF78
aF50
aF215
aF201
aF285
aF328
aF23
aF50
aF3
aF63
aF9
aF208
aF278
aF271
aF338
aF149
aF205
aF138
aF313
aF171
aF35
aF55
aF185
aF131
aF218
aF53
aF209
aF307
aF142
aF31
aF126
aF229
aF24
aF82
aF122
aF206
aF11
aF189
aF343
aF269
aF71
aF199
aF5
aF202
aF155
aF106
aF222
aF242
aF314
aF136
aF36
aF11
aF220
aF242
aF141
aF35
aF190
aF24
aF123
aF145
aF148
aF258
aF264
aF246
aF12
aF161
aF83
aF50
aF203
aF50
aF224
aF62
aF292
aF197
aF226
aF122
aF148
aF168
aF236
aF246
aF323
aF168
aF254
aF173
aF41
aF211
aF101
aF285
aF98
aF286
aF53
aF103
aF357
aF225
aF5
aF38
aF300
aF249
aF220
aF299
aF320
aF300
aF112
aF40
aF338
aF70
aF303
aF329
aF3
aF318
aF201
aF15
aF78
aF3
aF173
aF23
aF214
aF86
aF116
aF289
aF104
aF343
aF97
aF68
aF313
aF28
aF357
aF19
aF307
aF41
aF123
aF236
aF260
aF158
aF105
aF288
aF68
aF338
aF95
aF242
aF196
aF106
aF156
aF181
aF75
aF175
aF132
aF319
aF287
aF111
aF137
aF343
aF153
aF242
aF136
aF17
aF268
aF323
aF126
aF70
aF170
aF75
aF21
aF216
aF165
aF160
aF75
aF239
aF77
aF206
aF27
aF45
aF140
aF226
aF98
aF148
aF291
aF291
aF135
aF44
aF310
aF183
aF98
aF15
aF161
aF185
aF43
aF304
aF182
aF172
aF140
aF194
aF6
aF103
aF347
aF250
aF111
aF288
aF91
aF160
aF203
aF131
aF236
aF317
aF11
aF285
aF40
aF324
aF120
aF160
aF218
aF239
aF248
aF265
aF136
aF236
aF6
aF307
aF41
aF93
aF135
aF317
aF265
aF317
aF296
aF197
aF332
aF138
aF209
aF199
aF17
aF159
aF18
aF324
aF224
aF331
aF234
aF350
aF221
aF300
aF112
aF207
aF231
aF56
aF342
aF131
aF268
aF44
aF307
aF320
aF245
aF65
aF343
aF40
aF292
aF168
aF288
aF90
aF139
aF206
aF41
aF203
aF335
aF146
aF300
aF6
aF268
aF218
aF338
aF343
aF93
aF300
aF153
aF115
aF236
aF258
aF355
aF140
aF243
aF43
aF42
aF97
aF20
aF244
aF149
aF11
aF33
aF46
aF353
aF50
aF46
aF6
aF260
aF17
aF216
aF332
aF191
aF158
aF179
aF310
aF55
aF81
aF291
aF343
aF149
aF15
aF218
aF225
aF24
aF313
aF227
aF337
aF121
aF69
aF236
aF225
aF272
aF45
aF278
aF61
aF263
aF86
aF342
aF158
aF305
aF253
aF3
aF150
aF343
aF19
aF196
aF280
aF154
aF148
aF88
aF199
aF304
aF255
aF215
aF31
aF46
aF278
aF326
aF355
aF190
aF288
aF44
aF142
aF149
aF152
aF16
aF244
aF207
aF281
aF331
aF249
aF94
aF45
aF79
aF9
aF247
aF355
aF56
aF157
aF317
aF216
aF86
aF158
aF329
aF321
aF162
aF198
aF258
aF308
aF82
aF118
aF193
aF98
aF200
aF277
aF15
aF114
aF305
aF153
aF146
aF343
aF274
aF212
aF86
aF143
aF79
aF49
aF120
aF307
aF146
aF100
aF147
aF343
aF352
aF161
aF308
aF141
aF237
aF168
aF184
aF292
aF46
aF194
aF249
aF335
aF170
aF81
aF185
aF317
aF44
aF62
aF136
aF190
aF45
aF292
aF297
aF93
aF203
aF331
aF257
aF250
aF93
aF34
aF81
aF321
aF216
aF178
aF148
aF143
aF179
aF312
aF98
aF45
aF45
aF247
aF185
aF338
aF332
aF125
aF274
aF83
aF272
aF139
aF185
aF256
aF242
aF44
aF318
aF134
aF186
aF100
aF27
aF333
aF154
aF82
aF37
aF104
aF257
aF3
aF354
aF180
aF164
aF165
aF98
aF155
aF262
aF193
aF82
aF68
aF285
aF198
aF28
aF216
aF102
aF42
aF139
aF313
aF59
aF37
aF268
aF344
aF90
aF217
aF124
aF288
aF92
aF239
aF123
aF69
aF222
aF120
aF251
aF214
aF256
aF43
aF29
aF299
aF350
aF282
aF341
aF50
aF220
aF288
aF36
aF278
aF148
aF248
aF46
aF338
aF317
aF69
aF174
aF23
aF332
aF188
aF272
aF265
aF260
aF153
aF132
aF135
aF203
aF164
aF213
aF219
aF103
aF70
aF283
aF307
aF137
aF73
aF240
aF69
aF112
aF338
aF116
aF133
aF130
aF267
aF15
aF170
aF23
aF255
aF43
aF21
aF203
aF199
aF277
aF236
aF203
aF293
aF174
aF15
aF69
aF169
aF177
aF134
aF96
aF101
aF209
aF78
aF202
aF179
aF324
aF137
aF136
aF146
aF143
aF34
aF313
aF59
aF262
aF98
aF329
aF240
aF11
aF155
aF319
aF236
aF157
aF158
aF94
aF168
aF117
aF269
aF69
aF58
aF10
aF69
aF300
aF285
aF155
aF222
aF17
aF327
aF239
aF55
aF5
aF264
aF265
aF48
aF343
aF45
aF56
aF313
aF73
aF71
aF66
aF352
aF132
aF249
aF299
aF46
aF55
aF20
aF256
aF325
aF332
aF112
aF154
aF251
aF290
aF200
aF159
aF316
aF278
aF142
aF319
aF164
aF246
aF0
aF46
aF15
aF18
aF212
aF83
aF23
aF236
aF313
aF343
aF317
aF248
aF226
aF349
aF216
aF213
aF56
aF264
aF38
aF287
aF218
aF82
aF239
aF43
aF170
aF27
aF300
aF12
aF296
aF320
aF136
aF110
aF294
aF7
aF250
aF17
aF101
aF78
aF15
aF140
aF50
aF305
aF353
aF116
aF136
aF308
aF3
aF247
aF131
aF262
aF46
aF175
aF218
aF291
aF151
aF300
aF58
aF330
aF52
aF319
aF155
aF102
aF18
aF132
aF313
aF160
aF81
aF340
aF39
aF84
aF112
aF189
aF85
aF62
aF132
aF211
aF9
aF338
aF181
aF249
aF94
aF180
aF24
aF0
aF94
aF260
aF88
aF242
aF288
aF231
aF32
aF112
aF324
aF143
aF6
aF321
aF207
aF36
aF88
aF172
aF1
aF41
aF152
aF311
aF334
aF3
aF314
aF110
aF355
aF313
aF68
aF135
aF80
aF316
aF264
aF147
aF152
aF159
aF292
aF82
aF300
aF240
aF134
aF321
aF296
aF234
aF225
aF45
aF181
aF288
aF138
aF352
aF80
aF191
aF297
aF265
aF79
aF300
aF300
aF136
aF274
aF75
aF134
aF179
aF272
aF272
aF46
aF154
aF65
aF162
aF187
aF136
aF300
aF48
aF131
aF198
aF69
aF221
aF231
aF45
aF183
aF174
aF100
aF344
aF11
aF118
aF80
aF219
aF274
aF308
aF227
aF120
aF152
aF245
aF10
aF149
aF69
aF339
aF320
aF208
aF247
aF112
aF85
aF123
aF56
aF56
aF154
aF8
aF2
aF44
aF215
aF147
aF49
aF140
aF127
aF317
aF272
aF128
aF357
aF158
aF138
aF112
aF219
aF2
aF78
aF267
aF132
aF120
aF41
aF45
aF17
aF331
aF284
aF168
aF8
aF120
aF250
aF161
aF255
aF326
aF44
aF258
aF352
aF203
aF132
aF180
aF312
aF37
aF8
aF179
aF228
aF219
aF112
aF320
aF45
aF329
aF3
aF168
aF334
aF292
aF115
aF355
aF207
aF287
aF40
aF206
aF313
aF75
aF150
aF240
aF236
aF194
aF332
aF45
aF88
aF338
aF152
aF221
aF291
aF268
aF8
aF209
aF138
aF95
aF292
aF130
aF16
aF135
aF30
aF78
aF55
aF239
aF134
aF268
aF236
aF198
aF45
aF68
aF250
aF43
aF39
aF8
aF112
aF225
aF138
aF292
aF210
aF343
aF352
aF292
aF238
aF8
aF68
aF313
aF334
aF256
aF317
aF175
aF207
aF12
aF272
aF357
aF317
aF318
aF287
aF94
aF126
aF13
aF79
aF320
aF3
aF317
aF260
aF250
aF50
aF207
aF343
aF11
aF18
aF97
aF262
aF166
aF205
aF0
aF296
aF352
aF236
aF58
aF174
aF287
aF45
aF100
aF182
aF326
aF334
aF224
aF357
aF73
aF112
aF318
aF274
aF335
aF69
aF66
aF88
aF309
aF50
aF104
aF125
aF284
aF352
aF75
aF113
aF24
aF343
aF139
aF191
aF275
aF310
aF193
aF135
aF239
aF36
aF3
aF325
aF5
aF197
aF148
aF343
aF285
aF275
aF12
aF74
aF15
aF236
aF168
aF327
aF24
aF289
aF43
aF275
aF304
aF242
aF28
aF174
aF335
aF70
aF203
aF188
aF56
aF244
aF33
aF75
aF299
aF338
aF240
aF103
aF197
aF70
aF94
aF330
aF112
aF249
aF280
aF10
aF43
aF5
aF123
aF278
aF272
aF28
aF208
aF246
aF211
aF107
aF176
aF260
aF299
aF357
aF273
aF199
aF205
aF357
aF136
aF85
aF95
aF76
aF332
aF197
aF150
aF168
aF139
aF251
aF173
aF209
aF300
aF275
aF69
aF309
aF78
aF42
aF60
aF146
aF17
aF242
aF75
aF41
aF78
aF190
aF148
aF342
aF69
aF304
aF98
aF277
aF279
aF3
aF168
aF239
aF172
aF276
aF281
aF215
aF6
aF215
aF21
aF78
aF299
aF10
aF109
aF45
aF75
aF284
aF251
aF205
aF343
aF312
aF85
aF256
aF93
aF162
aF330
aF71
aF347
aF138
aF205
aF111
aF191
aF206
aF18
aF296
aF300
aF164
aF219
aF292
aF355
aF308
aF123
aF292
aF190
aF173
aF97
aF227
aF148
aF353
aF168
aF323
aF273
aF191
aF343
aF310
aF18
aF232
aF37
aF262
aF143
aF242
aF110
aF142
aF17
aF271
aF100
aF114
aF48
aF226
aF332
aF236
aF271
aF45
aF246
aF213
aF202
aF161
aF189
aF75
aF135
aF147
aF133
aF263
aF51
aF193
aF307
aF45
aF115
aF307
aF330
aF357
aF203
aF86
aF308
aF317
aF165
aF240
aF61
aF54
aF174
aF18
aF55
aF60
aF171
aF241
aF313
aF247
aF332
aF78
aF73
aF273
aF320
aF183
aF193
aF18
aF191
aF10
aF11
aF288
aF353
aF267
aF198
aF338
aF240
aF266
aF138
aF109
aF150
aF226
aF333
aF124
aF15
aF112
aF9
aF240
aF59
aF168
aF158
aF135
aF299
aF122
aF237
aF221
aF277
aF236
aF329
aF52
aF353
aF335
aF324
aF312
aF201
aF162
aF203
aF89
aF101
aF327
aF5
aF187
aF143
aF165
aF32
aF199
aF154
aF155
aF253
aF352
aF318
aF170
aF264
aF339
aF143
aF125
aF334
aF223
aF313
aF239
aF203
aF234
aF256
aF30
aF105
aF68
aF92
aF205
aF3
aF332
aF221
aF169
aF315
aF173
aF231
aF160
aF83
aF58
aF199
aF41
aF103
aF245
aF41
aF99
aF47
aF202
aF355
aF178
aF152
aF342
aF27
aF68
aF350
aF282
aF93
aF175
aF168
aF98
aF81
aF341
aF130
aF18
aF159
aF86
aF83
aF78
aF97
aF208
aF47
aF347
aF321
aF346
aF122
aF42
aF277
aF126
aF202
aF286
aF69
aF136
aF239
aF17
aF95
aF24
aF37
aF272
aF288
aF80
aF167
aF223
aF189
aF102
aF127
aF281
aF34
aF236
aF288
aF46
aF264
aF348
aF88
aF307
aF143
aF249
aF97
aF18
aF296
aF269
aF240
aF247
aF161
aF48
aF155
aF320
aF302
aF77
aF68
aF45
aF347
aF216
aF103
aF268
aF23
aF324
aF40
aF3
aF343
aF296
aF291
aF222
aF150
aF112
aF203
aF229
aF355
aF42
aF267
aF43
aF325
aF286
aF332
aF117
aF277
aF290
aF140
aF331
aF350
aF348
aF310
aF235
aF69
aF349
aF138
aF237
aF308
aF98
aF61
aF62
aF170
aF31
aF134
aF247
aF82
aF261
aF203
aF11
aF56
aF40
aF48
aF73
aF13
aF292
aF156
aF29
aF193
aF318
aF152
aF56
aF354
aF299
aF253
aF68
aF203
aF202
aF99
aF79
aF330
aF304
aF134
aF70
aF228
aF164
aF245
aF190
aF240
aF33
aF164
aF50
aF100
aF133
aF136
aF275
aF132
aF301
aF56
aF255
aF284
aF346
aF168
aF239
aF185
aF314
aF103
aF44
aF355
aF65
aF274
aF24
aF341
aF110
aF127
aF154
aF268
aF260
aF233
aF265
aF294
aF215
aF218
aF280
aF157
aF321
aF269
aF224
aF52
aF222
aF93
aF232
aF157
aF160
aF18
aF50
aF124
aF94
aF88
aF203
aF279
aF281
aF300
aF50
aF8
aF6
aF88
aF158
aF154
aF343
aF125
aF168
aF168
aF262
aF313
aF253
aF27
aF190
aF347
aF275
aF278
aF44
aF55
aF349
aF156
aF304
aF162
aF311
aF132
aF258
aF186
aF300
aF357
aF138
aF211
aF236
aF28
aF68
aF44
aF72
aF355
aF73
aF352
aF203
aF31
aF257
aF240
aF236
aF289
aF209
aF334
aF346
aF27
aF335
aF34
aF257
aF340
aF329
aF349
aF28
aF68
aF97
aF131
aF224
aF259
aF35
aF349
aF158
aF107
aF242
aF262
aF94
aF269
aF267
aF8
aF258
aF183
aF39
aF206
aF343
aF65
aF256
aF50
aF270
aF34
aF12
aF272
aF218
aF319
aF197
aF114
aF302
aF288
aF158
aF32
aF319
aF293
aF290
aF89
aF332
aF238
aF136
aF185
aF11
aF156
aF331
aF330
aF86
aF123
aF82
aF5
aF40
aF11
aF189
aF254
aF233
aF60
aF63
aF55
aF111
aF320
aF247
aF149
aF271
aF49
aF111
aF145
aF86
aF199
aF262
aF178
aF43
aF236
aF334
aF337
aF206
aF318
aF288
aF281
aF238
aF340
aF65
aF18
aF111
aF318
aF241
aF34
aF182
aF254
aF18
aF149
aF30
aF18
aF326
aF269
aF89
aF63
aF43
aF75
aF76
aF36
aF36
aF175
aF287
aF85
aF40
aF60
aF335
aF272
aF69
aF15
aF299
aF245
aF320
aF292
aF63
aF81
aF267
aF178
aF67
aF158
aF132
aF143
aF292
aF344
aF15
aF94
aF159
aF65
aF9
aF208
aF48
aF210
aF154
aF353
aF338
aF82
aF208
aF351
aF346
aF13
aF140
aF335
aF56
aF31
aF11
aF148
aF323
aF70
aF11
aF343
aF233
aF44
aF81
aF202
aF34
aF333
aF29
aF292
aF95
aF262
aF342
aF13
aF98
aF137
aF247
aF34
aF42
aF81
aF217
aF159
aF355
aF162
aF290
aF192
aF197
aF83
aF14
aF218
aF119
aF242
aF73
aF43
aF123
aF132
aF169
aF215
aF48
aF36
aF9
aF165
aF247
aF193
aF156
aF249
aF277
aF145
aF165
aF242
aF260
aF215
aF317
aF342
aF96
aF313
aF254
aF123
aF60
aF299
aF67
aF101
aF141
aF140
aF169
aF93
aF306
aF325
aF181
aF278
aF152
aF167
aF189
aF346
aF18
aF15
aF154
aF70
aF352
aF23
aF205
aF54
aF50
aF308
aF50
aF334
aF65
aF226
aF332
aF71
aF316
aF59
aF321
aF193
aF119
aF349
aF94
aF123
aF46
aF343
aF47
aF333
aF86
aF278
aF124
aF343
aF218
aF236
aF329
aF69
aF181
aF143
aF44
aF81
aF40
aF203
aF132
aF78
aF267
aF270
aF246
aF156
aF157
aF257
aF242
aF15
aF256
aF185
aF54
aF45
aF343
aF123
aF249
aF353
aF3
aF86
aF46
aF203
aF288
aF21
aF23
aF332
aF62
aF19
aF107
aF138
aF315
aF236
aF180
aF94
aF138
aF79
aF122
aF251
aF111
aF307
aF124
aF122
aF277
aF120
aF203
aF169
aF69
aF288
aF135
aF68
aF110
aF330
aF321
aF3
aF334
aF138
aF308
aF247
aF140
aF325
aF124
aF158
aF170
aF227
aF139
aF12
aF174
aF237
aF213
aF86
aF321
aF156
aF284
aF78
aF78
aF287
aF357
aF336
aF140
aF107
aF151
aF165
aF24
aF94
aF214
aF2
aF120
aF46
aF355
aF343
aF148
aF87
aF300
aF219
aF14
aF323
aF41
aF132
aF83
aF265
aF81
aF11
aF92
aF298
aF332
aF24
aF205
aF313
aF196
aF258
aF190
aF262
aF47
aF166
aF317
aF307
aF170
aF104
aF8
aF160
aF45
aF3
aF317
aF63
aF226
aF123
aF218
aF215
aF197
aF188
aF260
aF194
aF3
aF140
aF24
aF247
aF313
aF43
aF284
aF339
aF69
aF246
aF30
aF339
aF45
aF112
aF205
aF11
aF15
aF10
aF1
aF149
aF13
aF86
aF265
aF191
aF83
aF160
aF218
aF152
aF55
aF246
aF50
aF86
aF277
aF239
aF70
aF69
aF175
aF143
aF202
aF193
aF297
aF36
aF46
aF69
aF189
aF132
aF254
aF75
aF120
aF258
aF72
aF343
aF3
aF300
aF175
aF46
aF247
aF59
aF15
aF325
aF87
aF72
aF255
aF268
aF112
aF227
aF347
aF82
aF329
aF305
aF346
aF49
aF169
aF249
aF355
aF68
aF278
aF313
aF287
aF94
aF70
aF353
aF93
aF315
aF213
aF73
aF307
aF236
aF150
aF310
aF202
aF165
aF159
aF114
aF322
aF251
aF263
aF313
aF265
aF6
aF171
aF18
aF35
aF155
aF98
aF62
aF274
aF110
aF92
aF267
aF232
aF305
aF95
aF271
aF104
aF254
aF343
aF279
aF320
aF202
aF260
aF221
aF17
aF140
aF299
aF254
aF15
aF56
aF148
aF11
aF72
aF297
aF16
aF8
aF206
aF23
aF72
aF227
aF339
aF247
aF107
aF88
aF37
aF279
aF198
aF203
aF110
aF34
aF94
aF94
aF273
aF120
aF143
aF168
aF68
aF107
aF36
aF330
aF60
aF199
aF337
aF343
aF124
aF274
aF254
aF202
aF308
aF264
aF332
aF150
aF68
aF320
aF257
aF310
aF280
aF216
aF18
aF66
aF156
aF249
aF205
aF267
aF320
aF131
aF100
aF321
aF148
aF159
aF299
aF158
aF218
aF247
aF140
aF346
aF191
aF311
aF79
aF120
aF173
aF307
aF68
aF21
aF120
aF239
aF343
aF152
aF15
aF56
aF313
aF211
aF219
aF2
aF83
aF94
aF316
aF221
aF124
aF128
aF313
aF34
aF52
aF160
aF321
aF140
aF185
aF39
aF254
aF97
aF248
aF219
aF120
aF249
aF15
aF270
aF155
aF104
aF161
aF239
aF208
aF7
aF270
aF72
aF42
aF206
aF103
aF342
aF157
aF83
aF292
aF120
aF83
aF239
aF247
aF265
aF334
aF278
aF125
aF227
aF355
aF292
aF132
aF224
aF292
aF247
aF338
aF70
aF3
aF50
aF43
aF40
aF308
aF290
aF128
aF344
aF304
aF8
aF203
aF236
aF93
aF41
aF173
aF281
aF246
aF285
aF345
aF59
aF87
aF9
aF269
aF189
aF172
aF202
aF189
aF134
aF237
aF291
aF265
aF138
aF48
aF100
aF227
aF95
aF18
aF69
aF79
aF46
aF216
aF285
aF81
aF156
aF202
aF180
aF275
aF182
aF196
aF44
aF45
aF123
aF247
aF127
aF203
aF291
aF166
aF320
aF94
aF346
aF122
aF188
aF196
aF347
aF168
aF3
aF6
aF16
aF219
aF195
aF288
aF190
aF333
aF247
aF54
aF23
aF93
aF94
aF11
aF285
aF130
aF122
aF297
aF201
aF184
aF165
aF152
aF313
aF247
aF45
aF221
aF278
aF123
aF132
aF188
aF307
aF145
aF260
aF301
aF32
aF80
aF131
aF112
aF185
aF83
aF123
aF27
aF59
aF333
aF65
aF200
aF216
aF188
aF162
aF343
aF200
aF122
aF287
aF211
aF209
aF245
aF19
aF120
aF138
aF356
aF117
aF96
aF262
aF78
aF100
aF333
aF334
aF238
aF249
aF24
aF95
aF326
aF272
aF48
aF305
aF329
aF285
aF288
aF292
aF310
aF104
aF247
aF82
aF242
aF41
aF239
aF321
aF256
aF69
aF270
aF187
aF275
aF355
aF179
aF258
aF95
aF178
aF2
aF56
aF44
aF282
aF93
aF236
aF149
aF317
aF104
aF15
aF242
aF136
aF173
aF136
aF169
aF247
aF41
aF162
aF313
aF68
aF40
aF101
aF124
aF120
aF9
aF97
aF112
aF238
aF41
aF18
aF123
aF176
aF82
aF156
aF339
aF312
aF152
aF20
aF35
aF203
aF321
aF94
aF262
aF69
aF124
aF247
aF15
aF342
aF297
aF321
aF187
aF218
aF233
aF191
aF3
aF356
aF66
aF307
aF159
aF343
aF24
aF99
aF168
aF154
aF312
aF93
aF135
aF42
aF108
aF148
aF104
aF255
aF251
aF240
aF319
aF342
aF101
aF17
aF132
aF297
aF80
aF102
aF256
aF194
aF83
aF273
aF256
aF357
aF351
aF48
aF192
aF88
aF219
aF250
aF16
aF193
aF143
aF68
aF307
aF69
aF260
aF349
aF168
aF265
aF36
aF289
aF55
aF207
aF189
aF61
aF156
aF138
aF146
aF232
aF165
aF16
aF164
aF69
aF199
aF231
aF342
aF171
aF242
aF131
aF280
aF63
aF3
aF236
aF206
aF27
aF317
aF35
aF159
aF256
aF138
aF240
aF338
aF69
aF254
aF139
aF166
aF3
aF107
aF236
aF236
aF7
aF330
aF307
aF307
aF194
aF139
aF20
aF312
aF164
aF23
aF317
aF245
aF343
aF130
aF274
aF189
aF310
aF153
aF291
aF115
aF153
aF93
aF218
aF103
aF282
aF352
aF135
aF236
aF152
aF8
aF145
aF159
aF316
aF323
aF73
aF265
aF210
aF158
aF46
aF313
aF320
aF155
aF173
aF230
aF313
aF168
aF330
aF150
aF228
aF277
aF226
aF215
aF269
aF143
aF18
aF216
aF241
aF161
aF135
aF199
aF270
aF338
aF8
aF205
aF98
aF148
aF332
aF223
aF46
aF82
aF127
aF162
aF312
aF297
aF166
aF321
aF332
aF93
aF251
aF306
aF231
aF46
aF185
aF103
aF138
aF315
aF209
aF341
aF72
aF78
aF3
aF305
aF343
aF156
aF152
aF154
aF268
aF82
aF308
aF50
aF271
aF48
aF356
aF81
aF218
aF312
aF343
aF310
aF5
aF305
aF310
aF66
aF142
aF300
aF245
aF233
aF158
aF276
aF143
aF23
aF130
aF21
aF353
aF309
aF299
aF58
aF340
aF50
aF158
aF304
aF242
aF11
aF353
aF165
aF73
aF207
aF340
aF80
aF68
aF80
aF3
aF162
aF93
aF219
aF132
aF154
aF45
aF44
aF8
aF343
aF44
aF86
aF334
aF189
aF201
aF46
aF256
aF46
aF98
aF18
aF347
aF97
aF312
aF206
aF327
aF120
aF356
aF94
aF198
aF317
aF355
aF148
aF346
aF236
aF234
aF337
aF232
aF148
aF300
aF305
aF347
aF75
aF352
aF120
aF354
aF50
aF134
aF277
aF277
aF159
aF102
aF120
aF45
aF94
aF103
aF21
aF46
aF313
aF288
aF213
aF280
aF203
aF141
aF50
aF52
aF174
aF343
aF355
aF315
aF226
aF285
aF146
aF271
aF299
aF173
aF324
aF40
aF69
aF130
aF197
aF63
aF236
aF309
aF251
aF288
aF8
aF140
aF36
aF183
aF47
aF251
aF43
aF175
aF352
aF48
aF34
aF205
aF321
aF164
aF39
aF323
aF150
aF282
aF132
aF132
aF28
aF78
aF267
aF344
aF173
aF121
aF308
aF155
aF193
aF45
aF285
aF344
aF136
aF159
aF127
aF62
aF357
aF313
aF260
aF79
aF288
aF246
aF349
aF296
aF93
aF132
aF138
aF199
aF82
aF162
aF9
aF11
aF11
aF260
aF184
aF178
aF158
aF135
aF99
aF299
aF45
aF32
aF343
aF318
aF170
aF211
aF103
aF344
aF151
aF226
aF337
aF308
aF255
aF58
aF24
aF149
aF24
aF137
aF130
aF120
aF211
aF208
aF72
aF308
aF332
aF158
aF168
aF171
aF247
aF24
aF198
aF285
aF183
aF95
aF157
aF318
aF317
aF34
aF96
aF164
aF46
aF203
aF355
aF81
aF331
aF311
aF347
aF214
aF156
aF203
aF53
aF111
aF156
aF181
aF321
aF278
aF209
aF35
aF334
aF29
aF187
aF95
aF297
aF24
aF139
aF234
aF12
aF330
aF317
aF313
aF253
aF286
aF83
aF93
aF140
aF313
aF215
aF43
aF48
aF343
aF231
aF313
aF288
aF296
aF174
aF164
aF264
aF168
aF159
aF305
aF68
aF232
aF131
aF66
aF134
aF158
aF34
aF216
aF289
aF28
aF215
aF43
aF282
aF313
aF229
aF306
aF148
aF265
aF123
aF291
aF343
aF105
aF152
aF94
aF149
aF30
aF264
aF317
aF289
aF11
aF130
aF3
aF287
aF138
aF315
aF338
aF247
aF120
aF342
aF256
aF203
aF160
aF40
aF109
aI5988
I6821
tp5
a((lp6
F339
aF87
aF262
aF181
aF351
aF52
aF313
aF137
aF61
aF131
aF56
aF291
aF176
aF256
aF109
aF240
aF311
aF72
aF303
aF338
aF290
aF308
aF302
aF356
aF193
aF283
aF357
aF308
aF186
aF216
aF274
aF123
aF141
aF98
aF236
aF317
aF172
aF139
aF176
aF163
aF108
aF270
aF266
aF27
aF70
aF199
aF275
aF98
aF195
aF295
aF225
aF47
aF77
aF109
aF14
aF204
aF5
aF73
aF91
aF218
aF128
aF122
aF151
aF98
aF169
aF180
aF3
aF40
aF268
aF50
aF99
aF84
aF338
aF356
aF5
aF272
aF92
aF165
aF232
aF246
aF190
aF106
aF290
aF283
aF352
aF102
aF32
aF214
aF212
aF203
aF273
aF242
aF225
aF203
aF338
aF83
aF313
aF75
aF326
aF244
aF12
aF157
aF56
aF174
aF349
aF120
aF91
aF188
aF186
aF137
aF174
aF12
aF235
aF162
aF104
aF243
aF199
aF34
aF233
aF65
aF170
aF155
aF5
aF36
aF3
aF50
aF239
aF111
aF235
aF299
aF111
aF320
aF266
aF259
aF22
aF322
aF352
aF255
aF109
aF109
aF218
aF292
aF76
aF302
aF47
aF268
aF339
aF242
aF0
aF254
aF313
aF96
aF238
aF56
aF74
aF302
aF203
aF194
aF153
aF166
aF171
aF114
aF168
aF21
aF172
aF338
aF357
aF42
aF152
aF50
aF50
aF342
aF338
aF42
aF158
aF144
aF86
aF160
aF338
aF163
aF239
aF186
aF262
aF125
aF26
aF32
aF215
aF293
aF107
aF313
aF18
aF320
aF174
aF52
aF291
aF87
aF338
aF234
aF118
aF217
aF353
aF51
aF322
aF95
aF320
aF285
aF82
aF319
aF254
aF339
aF87
aF338
aF86
aF147
aF170
aF3
aF336
aF91
aF177
aF22
aF218
aF224
aF332
aF56
aF64
aF95
aF211
aF211
aF347
aF54
aF143
aF122
aF112
aF186
aF73
aF333
aF33
aF226
aF109
aF209
aF15
aF46
aF22
aF264
aF266
aF197
aF63
aF147
aF6
aF106
aF343
aF238
aF255
aF169
aF159
aF239
aF281
aF37
aF249
aF290
aF237
aF231
aF222
aF283
aF308
aF165
aF176
aF47
aF99
aF290
aF184
aF234
aF311
aF288
aF123
aF348
aF61
aF83
aF273
aF238
aF3
aF170
aF64
aF38
aF109
aF271
aF179
aF332
aF327
aF270
aF73
aF353
aF122
aF159
aF306
aF190
aF197
aF83
aF150
aF256
aF75
aF206
aF338
aF159
aF226
aF356
aF338
aF215
aF114
aF336
aF226
aF214
aF183
aF137
aF347
aF141
aF220
aF242
aF82
aF28
aF132
aF318
aF119
aF196
aF239
aF173
aF101
aF122
aF246
aF102
aF161
aF23
aF256
aF196
aF73
aF268
aF154
aF188
aF147
aF2
aF342
aF158
aF188
aF170
aF123
aF102
aF204
aF262
aF274
aF54
aF21
aF69
aF170
aF338
aF2
aF187
aF240
aF38
aF281
aF306
aF267
aF93
aF147
aF34
aF356
aF266
aF265
aF357
aF213
aF339
aF208
aF214
aF50
aF40
aF105
aF239
aF322
aF149
aF27
aF316
aF184
aF86
aF333
aF36
aF283
aF161
aF23
aF182
aF18
aF188
aF350
aF52
aF356
aF316
aF176
aF287
aF199
aF194
aF342
aF87
aF288
aF213
aF344
aF54
aF337
aF213
aF216
aF165
aF121
aF237
aF344
aF299
aF188
aF286
aF280
aF54
aF143
aF342
aF250
aF292
aF98
aF314
aF325
aF343
aF143
aF108
aF338
aF351
aF294
aF151
aF150
aF309
aF194
aF132
aF278
aF339
aF256
aF338
aF79
aF170
aF215
aF202
aF254
aF338
aF68
aF180
aF6
aF139
aF238
aF217
aF188
aF32
aF291
aF214
aF41
aF283
aF292
aF19
aF111
aF55
aF86
aF286
aF283
aF48
aF169
aF349
aF132
aF322
aF31
aF69
aF119
aF344
aF39
aF227
aF5
aF36
aF43
aF86
aF64
aF317
aF325
aF22
aF345
aF18
aF33
aF239
aF245
aF95
aF194
aF297
aF184
aF7
aF224
aF196
aF66
aF55
aF128
aF244
aF41
aF136
aF236
aF132
aF193
aF253
aF243
aF338
aF138
aF342
aF347
aF315
aF168
aF231
aF207
aF247
aF292
aF320
aF283
aF157
aF239
aF176
aF235
aF196
aF314
aF338
aF203
aF96
aF50
aF180
aF338
aF347
aF297
aF218
aF47
aF31
aF76
aF236
aF83
aF303
aF36
aF131
aF157
aF40
aF103
aF204
aF38
aF32
aF319
aF356
aF105
aF322
aF160
aF324
aF157
aF159
aF176
aF291
aF339
aF143
aF8
aF234
aF5
aF357
aF118
aF76
aF54
aF296
aF34
aF151
aF74
aF187
aF147
aF147
aF121
aF190
aF177
aF19
aF213
aF109
aF217
aF5
aF337
aF218
aF286
aF332
aF151
aF139
aF196
aF159
aF45
aF121
aF232
aF106
aF204
aF283
aF268
aF176
aF83
aF338
aF50
aF322
aF15
aF20
aF190
aF105
aF217
aF19
aF173
aF331
aF95
aF158
aF252
aF338
aF217
aF87
aF85
aF202
aF153
aF276
aF127
aF178
aF283
aF268
aF102
aF269
aF190
aF157
aF9
aF294
aF314
aF61
aF130
aF62
aF264
aF173
aF239
aF66
aF347
aF176
aF333
aF8
aF102
aF190
aF246
aF325
aF338
aF61
aF275
aF174
aF84
aF204
aF123
aF44
aF32
aF169
aF116
aF206
aF20
aF165
aF54
aF63
aF109
aF198
aF3
aF32
aF334
aF198
aF22
aF188
aF256
aF239
aF52
aF132
aF132
aF221
aF327
aF121
aF103
aF83
aF12
aF351
aF83
aF175
aF271
aF171
aF266
aF137
aF150
aF109
aF353
aF176
aF356
aF86
aF313
aF72
aF3
aF71
aF219
aF22
aF83
aF113
aF328
aF50
aF296
aF322
aF169
aF143
aF333
aF124
aF116
aF194
aF120
aF300
aF325
aF26
aF43
aF139
aF167
aF190
aF326
aF74
aF200
aF18
aF157
aF76
aF308
aF189
aF319
aF212
aF185
aF109
aF157
aF164
aF20
aF190
aF157
aF320
aF170
aF184
aF291
aF74
aF324
aF134
aF0
aF1
aF257
aF345
aF203
aF47
aF196
aF190
aF176
aF264
aF18
aF87
aF157
aF353
aF127
aF110
aF188
aF155
aF262
aF99
aF283
aF37
aF194
aF84
aF55
aF183
aF338
aF341
aF131
aF122
aF312
aF180
aF27
aF194
aF240
aF109
aF28
aF186
aF247
aF236
aF249
aF131
aF311
aF340
aF167
aF147
aF241
aF112
aF144
aF266
aF50
aF324
aF28
aF43
aF145
aF297
aF189
aF134
aF339
aF48
aF332
aF353
aF87
aF294
aF144
aF179
aF161
aF352
aF339
aF277
aF147
aF246
aF147
aF66
aF321
aF296
aF329
aF216
aF338
aF115
aF346
aF251
aF83
aF118
aF326
aF81
aF147
aF173
aF347
aF286
aF198
aF173
aF192
aF336
aF124
aF54
aF134
aF278
aF3
aF327
aF250
aF83
aF204
aF301
aF207
aF238
aF187
aF194
aF283
aF256
aF170
aF356
aF290
aF20
aF194
aF134
aF161
aF335
aF50
aF262
aF204
aF37
aF61
aF335
aF209
aF206
aF66
aF151
aF268
aF292
aF47
aF76
aF357
aF235
aF40
aF123
aF256
aF289
aF294
aF186
aF335
aF193
aF8
aF282
aF357
aF26
aF54
aF338
aF289
aF157
aF206
aF11
aF351
aF246
aF338
aF60
aF166
aF339
aF228
aF315
aF286
aF124
aF234
aF135
aF256
aF350
aF146
aF82
aF50
aF207
aF224
aF132
aF26
aF104
aF262
aF109
aF231
aF339
aF206
aF109
aF286
aF350
aF146
aF346
aF208
aF318
aF324
aF215
aF291
aF132
aF154
aF74
aF352
aF342
aF267
aF189
aF175
aF177
aF302
aF204
aF119
aF25
aF50
aF50
aF69
aF87
aF219
aF75
aF296
aF322
aF268
aF63
aF200
aF235
aF172
aF329
aF313
aF169
aF327
aF103
aF26
aF66
aF3
aF338
aF322
aF154
aF266
aF139
aF333
aF328
aF292
aF234
aF151
aF21
aF225
aF188
aF60
aF266
aF131
aF147
aF99
aF102
aF34
aF64
aF212
aF239
aF20
aF292
aF250
aF333
aF211
aF184
aF60
aF286
aF171
aF106
aF235
aF222
aF24
aF315
aF208
aF86
aF79
aF290
aF26
aF225
aF338
aF8
aF171
aF154
aF243
aF0
aF83
aF184
aF253
aF108
aF232
aF95
aF171
aF67
aF283
aF185
aF12
aF167
aF238
aF132
aF68
aF262
aF100
aF214
aF291
aF237
aF137
aF185
aF174
aF4
aF73
aF66
aF351
aF70
aF314
aF146
aF294
aF45
aF264
aF118
aF47
aF171
aF136
aF266
aF74
aF228
aF88
aF248
aF50
aF172
aF86
aF340
aF83
aF267
aF200
aF124
aF256
aF153
aF130
aF154
aF202
aF173
aF320
aF59
aF354
aF14
aF147
aF222
aF83
aF34
aF196
aF54
aF171
aF219
aF278
aF236
aF176
aF173
aF231
aF26
aF283
aF353
aF95
aF197
aF219
aF299
aF137
aF226
aF318
aF213
aF208
aF199
aF4
aF317
aF180
aF166
aF237
aF252
aF147
aF153
aF320
aF306
aF195
aF150
aF180
aF120
aF232
aF216
aF174
aF322
aF344
aF228
aF18
aF42
aF71
aF288
aF124
aF133
aF338
aF73
aF322
aF254
aF282
aF314
aF345
aF167
aF332
aF356
aF102
aF314
aF317
aF213
aF298
aF240
aF165
aF251
aF171
aF206
aF243
aF40
aF85
aF22
aF182
aF39
aF36
aF61
aF283
aF185
aF219
aF234
aF209
aF268
aF32
aF246
aF340
aF85
aF241
aF212
aF291
aF242
aF338
aF257
aF43
aF141
aF180
aF232
aF242
aF63
aF138
aF124
aF284
aF73
aF74
aF87
aF333
aF219
aF194
aF333
aF313
aF215
aF33
aF50
aF163
aF83
aF289
aF66
aF82
aF154
aF103
aF57
aF9
aF43
aF155
aF268
aF98
aF33
aF77
aF176
aF278
aF173
aF40
aF243
aF338
aF37
aF12
aF77
aF276
aF132
aF226
aF187
aF176
aF223
aF209
aF349
aF259
aF147
aF346
aF288
aF170
aF111
aF48
aF19
aF241
aF243
aF268
aF72
aF281
aF31
aF180
aF203
aF121
aF133
aF26
aF221
aF41
aF206
aF42
aF287
aF267
aF180
aF356
aF246
aF239
aF124
aF222
aF320
aF5
aF4
aF314
aF278
aF194
aF63
aF131
aF12
aF65
aF176
aF311
aF179
aF338
aF338
aF314
aF125
aF3
aF288
aF331
aF4
aF267
aF196
aF64
aF90
aF216
aF216
aF151
aF212
aF61
aF149
aF195
aF197
aF113
aF124
aF210
aF338
aF123
aF299
aF133
aF50
aF228
aF66
aF40
aF31
aF102
aF249
aF297
aF29
aF137
aF79
aF163
aF338
aF294
aF240
aF332
aF125
aF164
aF324
aF67
aF83
aF98
aF37
aF292
aF284
aF208
aF3
aF270
aF246
aF204
aF52
aF136
aF6
aF312
aF173
aF22
aF100
aF38
aF130
aF69
aF285
aF266
aF86
aF194
aF355
aF113
aF75
aF148
aF333
aF157
aF103
aF246
aF82
aF118
aF48
aF208
aF76
aF47
aF207
aF212
aF273
aF59
aF36
aF317
aF234
aF291
aF47
aF83
aF311
aF227
aF50
aF194
aF342
aF88
aF251
aF334
aF213
aF31
aF4
aF318
aF56
aF29
aF206
aF94
aF26
aF246
aF254
aF132
aF108
aF311
aF322
aF41
aF91
aF204
aF62
aF234
aF246
aF125
aF193
aF22
aF176
aF175
aF317
aF283
aF147
aF40
aF221
aF51
aF109
aF103
aF317
aF70
aF275
aF233
aF199
aF338
aF50
aF90
aF285
aF182
aF183
aF206
aF145
aF221
aF47
aF353
aF99
aF274
aF179
aF124
aF18
aF286
aF134
aF172
aF288
aF23
aF230
aF338
aF61
aF69
aF50
aF232
aF315
aF176
aF261
aF231
aF145
aF8
aF357
aF54
aF285
aF335
aF211
aF336
aF170
aF322
aF5
aF301
aF83
aF303
aF22
aF25
aF290
aF190
aF41
aF346
aF196
aF129
aF176
aF27
aF62
aF207
aF34
aF26
aF111
aF293
aF66
aF101
aF216
aF74
aF283
aF285
aF22
aF114
aF317
aF147
aF77
aF61
aF5
aF31
aF95
aF147
aF134
aF40
aF246
aF169
aF61
aF134
aF344
aF103
aF150
aF57
aF313
aF356
aF63
aF237
aF270
aF74
aF209
aF262
aF209
aF61
aF151
aF169
aF296
aF56
aF297
aF224
aF174
aF82
aF346
aF240
aF47
aF159
aF270
aF295
aF161
aF3
aF171
aF204
aF344
aF91
aF262
aF220
aF296
aF170
aF209
aF183
aF296
aF172
aF209
aF288
aF173
aF69
aF108
aF160
aF132
aF338
aF256
aF104
aF131
aF66
aF269
aF76
aF349
aF72
aF145
aF322
aF222
aF8
aF155
aF278
aF50
aF91
aF56
aF9
aF329
aF347
aF111
aF131
aF209
aF289
aF4
aF187
aF339
aF71
aF333
aF328
aF147
aF353
aF131
aF245
aF172
aF50
aF102
aF110
aF242
aF288
aF322
aF196
aF83
aF117
aF282
aF43
aF243
aF186
aF5
aF237
aF170
aF95
aF18
aF293
aF6
aF286
aF73
aF347
aF180
aF90
aF2
aF202
aF317
aF320
aF245
aF94
aF246
aF274
aF83
aF122
aF5
aF353
aF20
aF93
aF147
aF66
aF105
aF303
aF199
aF278
aF220
aF279
aF122
aF266
aF332
aF338
aF47
aF19
aF34
aF276
aF334
aF197
aF249
aF84
aF190
aF235
aF109
aF253
aF255
aF56
aF29
aF185
aF189
aF337
aF351
aF207
aF353
aF265
aF256
aF233
aF233
aF265
aF104
aF61
aF75
aF262
aF328
aF54
aF170
aF219
aF10
aF124
aF116
aF83
aF155
aF121
aF236
aF328
aF71
aF187
aF103
aF165
aF173
aF43
aF318
aF322
aF182
aF45
aF256
aF9
aF242
aF144
aF287
aF173
aF83
aF157
aF40
aF269
aF4
aF100
aF275
aF22
aF29
aF328
aF299
aF333
aF308
aF120
aF60
aF233
aF163
aF39
aF119
aF338
aF311
aF278
aF157
aF120
aF259
aF86
aF298
aF220
aF87
aF204
aF206
aF50
aF324
aF198
aF10
aF173
aF314
aF53
aF42
aF86
aF61
aF338
aF124
aF286
aF314
aF173
aF114
aF138
aF256
aF195
aF12
aF241
aF295
aF355
aF320
aF148
aF318
aF206
aF23
aF237
aF47
aF283
aF345
aF108
aF289
aF57
aF214
aF275
aF154
aF350
aF177
aF330
aF213
aF69
aF247
aF330
aF45
aF190
aF66
aF330
aF334
aF275
aF208
aF132
aF48
aF322
aF212
aF132
aF357
aF269
aF75
aF285
aF192
aF279
aF54
aF306
aF103
aF209
aF173
aF246
aF287
aF246
aF111
aF52
aF278
aF270
aF195
aF170
aF246
aF69
aF242
aF178
aF139
aF83
aF318
aF276
aF234
aF268
aF207
aF286
aF112
aF212
aF222
aF57
aF194
aF84
aF193
aF22
aF206
aF150
aF347
aF268
aF346
aF260
aF273
aF153
aF335
aF181
aF287
aF98
aF35
aF21
aF13
aF20
aF20
aF76
aF188
aF303
aF111
aF222
aF152
aF164
aF83
aF98
aF239
aF296
aF317
aF176
aF170
aF283
aF333
aF143
aF338
aF105
aF270
aF275
aF111
aF249
aF310
aF209
aF97
aF143
aF189
aF188
aF111
aF50
aF320
aF57
aF50
aF215
aF176
aF54
aF124
aF323
aF55
aF261
aF86
aF213
aF125
aF87
aF316
aF242
aF202
aF238
aF45
aF290
aF187
aF304
aF179
aF286
aF56
aF37
aF154
aF245
aF194
aF74
aF352
aF299
aF138
aF186
aF4
aF131
aF256
aF297
aF342
aF124
aF313
aF294
aF127
aF339
aF37
aF353
aF48
aF233
aF229
aF100
aF75
aF322
aF219
aF93
aF265
aF285
aF188
aF288
aF246
aF83
aF333
aF318
aF235
aF139
aF37
aF344
aF202
aF77
aF267
aF214
aF344
aF95
aF266
aF175
aF66
aF197
aF270
aF190
aF315
aF293
aF168
aF258
aF352
aF124
aF124
aF192
aF307
aF278
aF264
aF299
aF131
aF139
aF267
aF327
aF225
aF212
aF51
aF57
aF74
aF257
aF183
aF23
aF336
aF119
aF176
aF185
aF296
aF342
aF357
aF337
aF299
aF50
aF98
aF247
aF173
aF220
aF172
aF86
aF48
aF215
aF356
aF258
aF234
aF325
aF328
aF63
aF37
aF283
aF357
aF219
aF338
aF31
aF147
aF320
aF120
aF207
aF302
aF268
aF314
aF192
aF170
aF38
aF323
aF314
aF188
aF295
aF343
aF74
aF21
aF6
aF141
aF314
aF165
aF194
aF103
aF275
aF76
aF45
aF299
aF109
aF83
aF64
aF330
aF184
aF34
aF74
aF283
aF31
aF356
aF328
aF224
aF338
aF26
aF242
aF3
aF200
aF209
aF190
aF61
aF66
aF91
aF190
aF135
aF212
aF82
aF225
aF66
aF94
aF47
aF109
aF137
aF55
aF9
aF40
aF113
aF339
aF66
aF332
aF229
aF147
aF151
aF286
aF183
aF56
aF95
aF239
aF256
aF316
aF25
aF352
aF147
aF121
aF242
aF26
aF308
aF344
aF351
aF191
aF299
aF217
aF8
aF333
aF74
aF293
aF264
aF109
aF211
aF338
aF241
aF178
aF190
aF212
aF11
aF122
aF313
aF157
aF147
aF187
aF268
aF154
aF132
aF114
aF330
aF219
aF182
aF170
aF154
aF3
aF214
aF233
aF61
aF151
aF154
aF12
aF109
aF290
aF163
aF198
aF338
aF157
aF221
aF334
aF265
aF151
aF338
aF320
aF12
aF190
aF143
aF178
aF6
aF172
aF111
aF75
aF15
aF304
aF126
aF147
aF113
aF152
aF98
aF61
aF339
aF61
aF334
aF81
aF211
aF60
aF275
aF292
aF137
aF247
aF340
aF75
aF130
aF188
aF207
aF249
aF267
aF214
aF9
aF3
aF50
aF58
aF42
aF151
aF220
aF167
aF143
aF4
aF19
aF242
aF120
aF95
aF13
aF74
aF2
aF194
aF192
aF12
aF269
aF62
aF324
aF3
aF240
aF242
aF157
aF165
aF308
aF344
aF77
aF323
aF151
aF138
aF26
aF192
aF220
aF289
aF306
aF334
aF240
aF327
aF236
aF268
aF166
aF31
aF269
aF20
aF145
aF234
aF306
aF212
aF169
aF243
aF130
aF268
aF176
aF165
aF45
aF178
aF30
aF186
aF278
aF210
aF120
aF355
aF345
aF292
aF217
aF17
aF2
aF12
aF251
aF90
aF161
aF81
aF198
aF276
aF74
aF73
aF176
aF86
aF333
aF298
aF82
aF228
aF314
aF212
aF31
aF320
aF125
aF225
aF62
aF333
aF74
aF120
aF254
aF290
aF302
aF61
aF99
aF117
aF70
aF307
aF338
aF320
aF3
aF77
aF350
aF356
aF256
aF157
aF266
aF290
aF41
aF215
aF297
aF75
aF178
aF326
aF255
aF310
aF146
aF34
aF1
aF332
aF170
aF91
aF83
aF176
aF103
aF251
aF353
aF158
aF342
aF74
aF39
aF246
aF6
aF242
aF56
aF268
aF65
aF3
aF287
aF170
aF238
aF77
aF220
aF61
aF122
aF180
aF198
aF150
aF33
aF285
aF109
aF73
aF91
aF234
aF175
aF81
aF74
aF24
aF338
aF292
aF225
aF297
aF267
aF5
aF238
aF76
aF44
aF287
aF177
aF276
aF247
aF197
aF43
aF187
aF292
aF356
aF219
aF289
aF200
aF230
aF318
aF50
aF185
aF175
aF25
aF83
aF109
aF3
aF37
aF70
aF219
aF338
aF28
aF91
aF262
aF242
aF219
aF147
aF20
aF51
aF154
aF246
aF52
aF31
aF267
aF23
aF239
aF43
aF145
aF351
aF87
aF338
aF187
aF40
aF320
aF213
aF213
aF357
aF342
aF20
aF50
aF87
aF272
aF54
aF12
aF70
aF265
aF98
aF335
aF334
aF106
aF219
aF294
aF320
aF236
aF146
aF61
aF113
aF343
aF344
aF50
aF230
aF99
aF320
aF83
aF297
aF270
aF163
aF133
aF208
aF178
aF31
aF213
aF233
aF86
aF242
aF178
aF149
aF301
aF320
aF252
aF322
aF269
aF31
aF353
aF296
aF86
aF219
aF148
aF148
aF50
aF89
aF81
aF253
aF151
aF333
aF65
aF294
aF197
aF328
aF103
aF232
aF8
aF151
aF111
aF86
aF351
aF132
aF3
aF287
aF302
aF193
aF351
aF188
aF194
aF333
aF61
aF256
aF243
aF76
aF13
aF86
aF151
aF115
aF18
aF170
aF194
aF61
aF33
aF87
aF97
aF193
aF27
aF61
aF217
aF33
aF147
aF299
aF266
aF103
aF353
aF338
aF145
aF211
aF1
aF352
aF251
aF266
aF346
aF210
aF219
aF171
aF202
aF59
aF338
aF167
aF100
aF182
aF31
aF170
aF182
aF188
aF75
aF26
aF187
aF65
aF247
aF169
aF241
aF261
aF221
aF168
aF166
aF294
aF52
aF84
aF262
aF270
aF50
aF143
aF123
aF42
aF192
aF338
aF74
aF316
aF213
aF213
aF267
aF144
aF357
aF275
aF9
aF296
aF52
aF338
aF268
aF95
aF219
aF103
aF316
aF239
aF320
aF159
aF195
aF4
aF246
aF59
aF38
aF103
aF338
aF180
aF206
aF265
aF166
aF316
aF195
aF22
aF197
aF306
aF127
aF245
aF219
aF252
aF180
aF32
aF283
aF316
aF319
aF111
aF130
aF188
aF286
aF99
aF73
aF320
aF155
aF328
aF154
aF142
aF356
aF287
aF224
aF283
aF197
aF322
aF41
aF132
aF38
aF345
aF14
aF73
aF338
aF192
aF190
aF77
aF234
aF99
aF285
aF4
aF147
aF320
aF357
aF62
aF256
aF287
aF154
aF281
aF338
aF56
aF214
aF132
aF267
aF278
aF253
aF58
aF151
aF265
aF287
aF323
aF354
aF342
aF218
aF273
aF41
aF178
aF337
aF342
aF189
aF133
aF190
aF207
aF147
aF338
aF310
aF102
aF32
aF311
aF222
aF185
aF179
aF183
aF276
aF215
aF355
aF83
aF136
aF180
aF247
aF268
aF321
aF261
aF333
aF60
aF216
aF61
aF8
aF320
aF352
aF108
aF187
aF149
aF216
aF98
aF333
aF322
aF291
aF155
aF315
aF43
aF54
aF27
aF34
aF353
aF32
aF334
aF171
aF137
aF275
aF33
aF213
aF163
aF123
aF165
aF6
aF136
aF152
aF339
aF203
aF216
aF338
aF146
aF95
aF177
aF118
aF157
aF313
aF21
aF251
aF323
aF8
aF108
aF84
aF109
aF212
aF83
aF175
aF327
aF187
aF216
aF334
aF60
aF60
aF56
aF162
aF157
aF289
aF212
aF21
aF176
aF180
aF118
aF243
aF294
aF312
aF276
aF345
aF76
aF227
aF203
aF32
aF139
aF85
aF268
aF307
aF190
aF180
aF297
aF231
aF216
aF296
aF152
aF145
aF95
aF219
aF113
aF191
aF43
aF55
aF176
aF180
aF220
aF246
aF61
aF329
aF167
aF167
aF204
aF212
aF313
aF159
aF190
aF21
aF33
aF37
aF146
aF25
aF99
aF269
aF243
aF176
aF41
aF153
aF357
aF133
aF64
aF190
aF37
aF31
aF283
aF333
aF317
aF175
aF170
aF302
aF262
aF86
aF106
aF86
aF241
aF338
aF343
aF283
aF25
aF213
aF297
aF213
aF195
aF34
aF294
aF19
aF132
aF73
aF57
aF71
aF294
aF296
aF342
aF313
aF11
aF5
aF62
aF242
aF257
aF9
aF30
aF167
aF268
aF103
aF40
aF63
aF322
aF301
aF176
aF254
aF89
aF285
aF351
aF253
aF352
aF224
aF18
aF157
aF8
aF204
aF112
aF139
aF322
aF47
aF290
aF188
aF62
aF29
aF344
aF204
aF147
aF95
aF338
aF343
aF144
aF69
aF170
aF183
aF246
aF134
aF202
aF208
aF190
aF213
aF251
aF172
aF282
aF83
aF213
aF257
aF349
aF194
aF132
aF338
aF119
aF204
aF330
aF239
aF253
aF170
aF147
aF311
aF5
aF109
aF206
aF179
aF239
aF278
aF334
aF322
aF6
aF206
aF48
aF3
aF48
aF34
aF338
aF320
aF39
aF12
aF177
aF247
aF332
aF328
aF313
aF289
aF205
aF109
aF83
aF192
aF28
aF224
aF225
aF326
aF176
aF271
aF314
aF342
aF145
aF9
aF322
aF87
aF178
aF206
aF290
aF31
aF346
aF124
aF239
aF68
aF3
aF348
aF235
aF326
aF187
aF91
aF239
aF139
aF149
aF157
aF65
aF334
aF151
aF17
aF333
aF276
aF151
aF122
aF1
aF195
aF190
aF131
aF83
aF220
aF49
aF325
aF180
aF70
aF333
aF18
aF109
aF267
aF186
aF19
aF77
aF278
aF335
aF302
aF266
aF123
aF292
aF124
aF256
aF75
aF137
aF275
aF180
aF290
aF73
aF257
aF249
aF350
aF179
aF208
aF41
aF342
aF206
aF84
aF219
aF283
aF62
aF237
aF357
aF99
aF206
aF32
aF101
aF31
aF352
aF297
aF73
aF50
aF181
aF86
aF5
aF253
aF350
aF54
aF205
aF349
aF99
aF143
aF86
aF86
aF98
aF9
aF194
aF52
aF113
aF222
aF350
aF321
aF47
aF83
aF131
aF297
aF338
aF207
aF328
aF337
aF103
aF322
aF106
aF71
aF77
aF71
aF350
aF282
aF332
aF47
aF151
aF292
aF212
aF62
aF341
aF109
aF256
aF264
aF332
aF313
aF75
aF177
aF207
aF34
aF157
aF262
aF246
aF87
aF61
aF83
aF31
aF338
aF20
aF229
aF39
aF220
aF313
aF267
aF21
aF147
aF171
aF106
aF134
aF329
aF121
aF177
aF131
aF213
aF337
aF109
aF220
aF27
aF176
aF247
aF4
aF299
aF65
aF175
aF201
aF87
aF249
aF73
aF296
aF118
aF227
aF322
aF207
aF246
aF283
aF105
aF83
aF267
aF255
aF324
aF206
aF38
aF169
aF292
aF73
aF59
aF216
aF86
aF20
aF154
aF227
aF228
aF61
aF242
aF289
aF290
aF82
aF108
aF327
aF333
aF60
aF184
aF167
aF325
aF54
aF95
aF59
aF102
aF3
aF176
aF197
aF61
aF291
aF292
aF181
aF256
aF188
aF268
aF58
aF75
aF313
aF150
aF20
aF239
aF16
aF142
aF312
aF292
aF153
aF83
aF194
aF27
aF172
aF22
aF267
aF116
aF268
aF189
aF79
aF157
aF354
aF165
aF260
aF14
aF175
aF183
aF356
aF32
aF302
aF95
aF230
aF103
aF206
aF111
aF301
aF106
aF234
aF286
aF141
aF170
aF338
aF136
aF255
aF339
aF211
aF327
aF262
aF317
aF262
aF119
aF357
aF281
aF295
aF122
aF47
aF249
aF278
aF139
aF338
aF277
aF133
aF177
aF143
aF351
aF177
aF86
aF283
aF111
aF320
aF276
aF188
aF86
aF45
aF43
aF322
aF83
aF328
aF255
aF63
aF176
aF213
aF108
aF338
aF162
aF59
aF8
aF338
aF334
aF19
aF191
aF16
aF299
aF58
aF343
aF353
aF297
aF43
aF174
aF44
aF300
aF324
aF283
aF278
aF139
aF149
aF83
aF244
aF283
aF242
aF328
aF323
aF289
aF150
aF61
aF113
aF149
aF268
aF132
aF313
aF213
aF171
aF206
aF33
aF56
aF186
aF322
aF36
aF213
aF246
aF312
aF139
aF48
aF91
aF109
aF356
aF336
aF157
aF4
aF338
aF76
aF338
aF290
aF23
aF247
aF66
aF234
aF357
aF292
aF32
aF83
aF45
aF209
aF32
aF314
aF211
aF39
aF351
aF8
aF109
aF319
aF273
aF140
aF269
aF292
aF194
aF233
aF181
aF299
aF242
aF252
aF5
aF151
aF195
aF48
aF351
aF351
aF294
aF19
aF302
aF246
aF75
aF322
aF301
aF107
aF74
aF179
aF161
aF12
aF286
aF201
aF64
aF42
aF282
aF38
aF297
aF57
aF267
aF176
aF239
aF246
aF81
aF352
aF213
aF325
aF122
aF239
aF313
aF267
aF298
aF25
aF334
aF260
aF157
aF72
aF234
aF159
aF246
aF180
aF338
aF186
aF351
aF188
aF236
aF139
aF332
aF242
aF41
aF242
aF339
aF188
aF196
aF128
aF306
aF149
aF59
aF222
aF9
aF343
aF320
aF233
aF328
aF266
aF334
aF306
aF129
aF71
aF163
aF181
aF95
aF109
aF106
aF207
aF97
aF246
aF3
aF76
aF330
aF21
aF313
aF252
aF342
aF324
aF121
aF48
aF133
aF18
aF162
aF86
aF192
aF147
aF33
aF31
aF332
aF170
aF71
aF137
aF338
aF119
aF338
aF39
aF178
aF279
aF175
aF167
aF356
aF69
aF74
aF238
aF172
aF151
aF279
aF306
aF84
aF203
aF7
aF258
aF171
aF230
aF31
aF246
aF349
aF267
aF294
aF262
aF21
aF276
aF3
aF56
aF86
aF294
aF240
aF262
aF143
aF124
aF158
aF209
aF293
aF175
aF151
aF180
aF297
aF44
aF1
aF72
aF65
aF134
aF151
aF47
aF42
aF188
aF6
aF143
aF225
aF71
aF312
aF183
aF174
aF86
aF216
aF147
aF98
aF8
aF212
aF93
aF51
aF226
aF106
aF79
aF106
aF183
aF228
aF190
aF56
aF192
aF285
aF31
aF31
aF122
aF77
aF230
aF289
aF270
aF246
aF193
aF320
aF287
aF196
aF181
aF111
aF268
aF268
aF83
aF196
aF144
aF87
aF27
aF99
aF240
aF103
aF279
aF332
aF91
aF239
aF110
aF270
aF338
aF179
aF135
aF75
aF177
aF242
aF71
aF342
aF109
aF18
aF45
aF353
aF176
aF278
aF247
aF121
aF177
aF61
aF270
aF13
aF171
aF74
aF304
aF197
aF4
aF31
aF207
aF111
aF323
aF173
aF75
aF77
aF218
aF132
aF251
aF77
aF125
aF35
aF72
aF51
aF43
aF54
aF252
aF173
aF283
aF67
aF147
aF171
aF320
aF219
aF198
aF232
aF154
aF172
aF4
aF108
aF349
aF156
aF132
aF26
aF340
aF297
aF318
aF216
aF270
aF38
aF62
aF173
aF31
aF45
aF169
aF206
aF222
aF194
aF52
aF184
aF213
aF242
aF173
aF147
aF146
aF206
aF288
aF155
aF13
aF91
aF194
aF357
aF8
aF98
aF50
aF187
aF198
aF109
aF173
aF52
aF82
aF201
aF157
aF338
aF352
aF8
aF314
aF55
aF54
aF62
aF151
aF157
aF266
aF283
aF292
aF82
aF351
aF19
aF65
aF61
aF85
aF119
aF173
aF180
aF168
aF221
aF350
aF215
aF179
aF339
aF69
aF218
aF51
aF349
aF353
aF145
aF204
aF340
aF109
aF147
aF199
aF122
aF290
aF310
aF29
aF154
aF268
aF313
aF212
aF253
aF157
aF201
aF29
aF196
aF240
aF3
aF355
aF111
aF56
aF318
aF283
aF55
aF120
aF283
aF54
aF109
aF222
aF84
aF333
aF327
aF27
aF37
aF9
aF227
aF271
aF352
aF103
aF301
aF113
aF36
aF317
aF42
aF216
aF284
aF108
aF190
aF258
aF178
aF116
aF4
aF143
aF108
aF336
aF246
aF36
aF125
aF338
aF352
aF204
aF18
aF112
aF170
aF303
aF346
aF147
aF256
aF310
aF242
aF168
aF197
aF168
aF194
aF296
aF103
aF163
aF305
aF267
aF246
aF237
aF337
aF342
aF204
aF347
aF292
aF347
aF70
aF58
aF83
aF61
aF292
aF227
aF94
aF73
aF8
aF339
aF275
aF353
aF157
aF299
aF269
aF246
aF212
aF69
aF313
aF30
aF99
aF232
aF276
aF171
aF320
aF12
aF47
aF338
aF278
aF333
aF337
aF131
aF258
aF206
aF83
aF264
aF302
aF85
aF320
aF322
aF348
aF43
aF66
aF319
aF98
aF353
aF233
aF191
aF340
aF193
aF200
aF320
aF70
aF343
aF124
aF177
aF106
aF69
aF188
aF296
aF187
aF191
aF179
aF9
aF195
aF184
aF210
aF79
aF212
aF179
aF334
aF264
aF69
aF232
aF204
aF186
aF91
aF107
aF294
aF158
aF37
aF87
aF311
aF322
aF213
aF268
aF154
aF266
aF38
aF103
aF56
aF197
aF190
aF287
aF255
aF119
aF296
aF231
aF343
aF261
aF50
aF137
aF39
aF172
aF247
aF212
aF42
aF262
aF217
aF149
aF322
aF350
aF281
aF235
aF181
aF248
aF170
aF314
aF272
aF8
aF24
aF286
aF22
aF4
aF20
aF178
aF157
aF354
aF351
aF29
aF29
aF25
aF81
aF19
aF124
aF202
aF314
aF76
aF342
aF35
aF239
aF276
aF170
aF46
aF339
aF352
aF256
aF337
aF249
aF324
aF48
aF6
aF132
aF10
aF132
aF144
aF87
aF34
aF61
aF301
aF262
aF96
aF170
aF313
aF357
aF39
aF346
aF247
aF314
aF338
aF266
aF47
aF31
aF121
aF246
aF18
aF116
aF3
aF140
aF170
aF50
aF118
aF40
aF147
aF28
aF109
aF144
aF76
aF124
aF165
aF332
aF108
aF339
aF7
aF216
aF83
aF248
aF256
aF12
aF136
aF111
aF241
aF176
aF213
aF209
aF338
aF49
aF254
aF275
aF348
aF188
aF40
aF83
aF203
aF273
aF104
aF357
aF69
aF252
aF328
aF47
aF5
aF352
aF317
aF91
aF83
aF130
aF43
aF132
aF334
aF194
aF260
aF201
aF129
aF41
aF109
aF174
aF208
aF92
aF76
aF179
aF103
aF232
aF123
aF10
aF163
aF346
aF324
aF290
aF222
aF189
aF177
aF334
aF42
aF287
aF220
aF121
aF214
aF45
aF148
aF132
aF340
aF38
aF155
aF249
aF120
aF8
aF125
aF166
aF221
aF99
aF289
aF197
aF106
aF357
aF256
aF246
aF320
aF153
aF283
aF209
aF233
aF281
aF148
aF102
aF267
aF297
aF124
aF338
aF178
aF12
aF234
aF52
aF143
aF71
aF71
aF50
aF88
aF273
aF227
aF234
aF270
aF251
aF45
aF127
aF57
aF313
aF208
aF282
aF275
aF338
aF5
aF306
aF335
aF242
aF304
aF197
aF143
aF326
aF146
aF218
aF183
aF289
aF31
aF270
aF283
aF66
aF338
aF253
aF257
aF32
aF197
aF266
aF176
aF58
aF218
aF251
aF50
aF350
aF55
aF1
aF281
aF230
aF86
aF213
aF157
aF174
aF252
aF240
aF86
aF145
aF170
aF315
aF277
aF226
aF31
aF136
aF45
aF154
aF175
aF42
aF8
aF320
aF347
aF173
aF3
aF83
aF324
aF94
aF109
aF83
aF221
aF36
aF311
aF204
aF352
aF194
aF66
aF163
aF202
aF232
aF42
aF96
aF317
aF221
aF320
aF196
aF241
aF219
aF71
aF50
aF194
aF234
aF142
aF99
aF337
aF356
aF328
aF283
aF190
aF74
aF50
aF64
aF154
aF216
aF96
aF226
aF154
aF76
aF147
aF296
aF281
aF20
aF342
aF278
aF194
aF140
aF322
aF13
aF276
aF32
aF8
aF260
aF118
aF225
aF84
aF209
aF176
aF340
aF270
aF214
aF331
aF173
aF32
aF128
aF268
aF106
aF10
aF254
aF285
aF111
aF181
aF65
aF95
aF90
aF148
aF39
aF262
aF177
aF0
aF147
aF273
aF41
aF235
aF73
aF349
aF127
aF333
aF51
aF163
aF42
aF335
aF164
aF159
aF313
aF0
aF124
aF353
aF352
aF229
aF38
aF183
aF187
aF54
aF9
aF185
aF135
aF207
aF270
aF248
aF318
aF178
aF303
aF283
aF32
aF276
aF170
aF172
aF292
aF269
aF109
aF249
aF37
aF204
aF56
aF155
aF195
aF338
aF75
aF353
aF119
aF285
aF193
aF338
aF184
aF351
aF42
aF68
aF26
aF338
aF184
aF8
aF243
aF324
aF113
aF227
aF278
aF181
aF136
aF286
aF270
aF260
aF338
aF91
aF179
aF177
aF136
aF252
aF54
aF13
aF188
aF87
aF132
aF276
aF283
aF98
aF9
aF222
aF267
aF298
aF31
aF190
aF83
aF338
aF172
aF122
aF318
aF339
aF90
aF326
aF353
aF322
aF338
aF338
aF53
aF232
aF277
aF86
aF164
aF104
aF276
aF57
aF4
aF356
aF257
aF135
aF0
aF349
aF356
aF333
aF336
aF238
aF12
aF177
aF346
aF202
aF228
aF131
aF242
aF252
aF214
aF14
aF209
aF338
aF109
aF158
aF159
aF266
aF147
aF318
aF233
aF232
aF166
aF198
aF337
aF342
aF223
aF334
aF299
aF334
aF147
aF197
aF147
aF74
aF108
aF145
aF206
aF357
aF346
aF306
aF41
aF138
aF165
aF256
aF103
aF61
aF45
aF222
aF313
aF278
aF302
aF292
aF105
aF179
aF266
aF127
aF147
aF206
aF124
aF230
aF283
aF217
aF286
aF31
aF20
aF132
aF176
aF320
aF342
aF356
aF45
aF30
aF62
aF187
aF246
aF333
aF229
aF131
aF140
aF147
aF157
aF19
aF283
aF233
aF57
aF6
aF169
aF337
aF73
aF163
aF6
aF296
aF196
aF352
aF323
aF43
aF192
aF19
aF36
aF55
aF325
aF167
aF171
aF180
aF27
aF195
aF212
aF9
aF247
aF130
aF137
aF328
aF338
aF76
aF342
aF183
aF351
aF146
aF189
aF134
aF242
aF151
aF340
aF63
aF40
aF338
aF77
aF213
aF197
aF29
aF187
aF172
aF217
aF242
aF242
aF346
aF166
aF163
aF339
aF186
aF262
aF243
aF237
aF176
aF109
aF139
aF217
aF90
aF204
aF228
aF206
aF251
aF147
aF144
aF256
aF119
aF121
aF92
aF83
aF299
aF338
aF221
aF258
aF103
aF252
aF178
aF32
aF147
aF263
aF140
aF67
aF231
aF100
aF316
aF17
aF40
aF299
aF173
aF22
aF177
aF146
aF148
aF313
aF343
aF147
aF74
aF170
aF342
aF328
aF109
aF307
aF283
aF35
aF131
aF61
aF187
aF241
aF159
aF33
aF26
aF86
aF173
aF256
aF165
aF172
aF336
aF99
aF147
aF110
aF314
aF126
aF178
aF72
aF112
aF155
aF103
aF52
aF302
aF233
aF79
aF83
aF149
aF87
aF103
aF325
aF214
aF290
aF170
aF109
aF268
aF204
aF119
aF185
aF350
aF32
aF288
aF158
aF314
aF213
aF194
aF233
aF8
aF221
aF124
aF320
aF242
aF323
aF255
aF143
aF297
aF198
aF154
aF157
aF290
aF111
aF289
aF26
aF105
aF323
aF219
aF12
aF55
aF143
aF185
aF194
aF74
aF297
aF260
aF336
aF77
aF174
aF56
aF197
aF163
aF190
aF335
aF71
aF61
aF100
aF216
aF109
aF114
aF192
aF142
aF22
aF209
aF99
aF235
aF183
aF338
aF206
aF82
aF338
aF54
aF50
aF12
aF66
aF212
aF338
aF190
aF188
aF52
aF206
aF338
aF51
aF325
aF3
aF5
aF339
aF183
aF326
aF212
aF61
aF251
aF138
aF163
aF3
aF63
aF165
aF201
aF109
aF232
aF204
aF334
aF161
aF127
aF291
aF278
aF288
aF287
aF8
aF249
aF132
aF78
aF155
aF339
aF260
aF324
aF3
aF267
aF230
aF219
aF104
aF339
aF219
aF286
aF274
aF208
aF256
aF149
aF9
aF186
aF286
aF4
aF346
aF219
aF254
aF338
aF186
aF278
aF269
aF39
aF58
aF183
aF140
aF231
aF174
aF111
aF8
aF135
aF222
aF99
aF297
aF270
aF19
aF111
aF52
aF9
aF213
aF42
aF50
aF9
aF161
aF94
aF292
aF213
aF211
aF328
aF247
aF39
aF76
aF324
aF333
aF176
aF176
aF27
aF292
aF134
aF182
aF106
aF87
aF259
aF306
aF334
aF177
aF132
aF231
aF238
aF338
aF184
aF232
aF84
aF283
aF63
aF330
aF61
aF208
aF333
aF13
aF109
aF339
aF9
aF327
aF177
aF356
aF172
aF178
aF357
aF160
aF45
aF83
aF142
aF303
aF54
aF357
aF113
aF281
aF8
aF208
aF167
aF289
aF193
aF192
aF249
aF127
aF206
aF170
aF331
aF146
aF69
aF171
aF163
aF264
aF173
aF38
aF60
aF236
aF48
aF193
aF73
aF336
aF350
aF219
aF286
aF105
aF157
aF206
aF105
aF194
aF36
aF283
aF234
aF354
aF318
aF159
aF194
aF352
aF134
aF98
aF331
aF342
aF322
aF95
aF235
aF240
aF109
aF334
aF335
aF100
aF337
aF26
aF175
aF8
aF173
aF22
aF34
aF122
aF56
aF268
aF227
aF338
aF283
aF291
aF316
aF351
aF188
aF325
aF61
aF350
aF52
aF256
aF63
aF170
aF124
aF292
aF342
aF246
aF338
aF113
aF221
aF212
aF48
aF335
aF170
aF49
aF247
aF290
aF22
aF291
aF16
aF222
aF130
aF227
aF296
aF45
aF311
aF218
aF338
aF249
aF336
aF99
aF302
aF132
aF42
aF98
aF317
aF275
aF170
aF352
aF3
aF175
aF299
aF58
aF134
aF176
aF282
aF344
aF87
aF275
aF322
aF111
aF231
aF108
aF110
aF108
aF161
aF287
aF349
aF286
aF121
aF41
aF45
aF281
aF302
aF50
aF51
aF87
aF86
aF172
aF147
aF39
aF356
aF130
aF9
aF132
aF316
aF87
aF239
aF303
aF211
aF320
aF239
aF287
aF64
aF174
aF81
aF62
aF77
aF109
aF73
aF87
aF253
aF60
aF344
aF219
aF204
aF336
aF132
aF67
aF148
aF344
aF291
aF242
aF238
aF74
aF31
aF186
aF39
aF235
aF172
aF258
aF303
aF206
aF153
aF38
aF45
aF187
aF185
aF176
aF109
aF159
aF77
aF103
aF292
aF171
aF154
aF4
aF333
aF338
aF106
aF278
aF96
aF342
aF251
aF38
aF338
aF50
aF111
aF259
aF167
aF36
aF159
aF176
aF6
aF124
aF206
aF267
aF296
aF188
aF313
aF293
aF266
aF122
aF84
aF155
aF149
aF132
aF192
aF43
aF237
aF309
aF20
aF332
aF188
aF338
aF188
aF95
aF181
aF10
aF99
aF28
aF190
aF194
aF163
aF353
aF183
aF316
aF51
aF234
aF22
aF339
aF120
aF54
aF13
aF170
aF71
aF338
aF12
aF278
aF178
aF122
aF116
aF352
aF175
aF262
aF162
aF187
aF74
aF237
aF73
aF340
aF253
aF177
aF176
aF151
aF286
aF276
aF109
aF189
aF66
aF103
aF190
aF268
aF56
aF239
aF99
aF180
aF282
aF131
aF212
aF351
aF273
aF13
aF213
aF109
aF83
aF292
aF190
aF134
aF145
aF352
aF275
aF355
aF157
aF32
aF29
aF302
aF213
aF217
aF20
aF316
aF313
aF122
aF47
aF257
aF76
aF225
aF283
aF333
aF270
aF317
aF185
aF338
aF320
aF266
aF91
aF190
aF124
aF39
aF97
aF144
aF290
aF185
aF63
aF190
aF34
aF9
aF78
aF224
aF334
aF144
aF122
aF43
aF56
aF338
aF338
aF143
aF246
aF114
aF139
aF171
aF17
aF27
aF174
aF83
aF292
aF283
aF253
aF96
aF332
aF37
aF346
aF123
aF98
aF314
aF239
aF27
aF42
aF228
aF301
aF43
aF151
aF147
aF102
aF231
aF173
aF338
aF182
aF143
aF222
aF154
aF313
aF42
aF23
aF50
aF204
aF62
aF216
aF109
aF31
aF98
aF54
aF282
aF143
aF283
aF283
aF10
aF357
aF357
aF275
aF338
aF145
aF340
aF200
aF328
aF170
aF352
aF9
aF253
aF76
aF209
aF196
aF290
aF46
aF56
aF268
aF233
aF122
aF104
aF313
aF334
aF161
aF71
aF132
aF61
aF341
aF35
aF20
aF65
aF276
aF43
aF239
aF268
aF238
aF318
aF108
aF5
aF322
aF237
aF146
aF324
aF212
aF352
aF33
aF88
aF332
aF196
aF262
aF243
aF286
aF95
aF37
aF186
aF71
aF213
aF4
aF99
aF67
aF344
aF136
aF132
aF316
aF339
aF328
aF349
aF220
aF214
aF9
aF334
aF264
aF313
aF75
aF353
aF61
aF194
aF272
aF328
aF292
aF285
aF113
aF260
aF308
aF290
aF192
aF26
aF351
aF266
aF334
aF230
aF325
aF26
aF86
aF109
aF231
aF87
aF317
aF270
aF95
aF187
aF162
aF121
aF233
aF319
aF87
aF176
aF275
aF195
aF252
aF69
aF60
aF173
aF118
aF12
aF230
aF166
aF86
aF61
aF147
aF125
aF74
aF234
aF223
aF266
aF184
aF77
aF342
aF190
aF217
aF219
aF209
aF71
aF338
aF224
aF352
aF27
aF12
aF87
aF311
aF48
aF85
aF278
aF260
aF206
aF54
aF91
aF202
aF219
aF155
aF296
aF262
aF194
aF313
aF314
aF178
aF323
aF256
aF109
aF286
aF98
aF212
aF32
aF186
aF187
aF20
aF77
aF60
aF36
aF334
aF323
aF172
aF147
aF285
aF125
aF120
aF190
aF334
aF333
aF274
aF204
aF157
aF91
aF54
aF83
aF99
aF262
aF169
aF163
aF314
aF188
aF106
aF274
aF161
aF303
aF0
aF103
aF323
aF138
aF219
aF324
aF231
aF194
aF274
aF109
aF290
aF222
aF145
aF288
aF147
aF190
aF252
aF217
aF338
aF339
aF33
aF266
aF351
aF165
aF225
aF266
aF234
aF318
aF262
aF187
aF41
aF86
aF3
aF25
aF318
aF265
aF333
aF338
aF52
aF334
aF342
aF191
aF331
aF182
aF50
aF252
aF294
aF225
aF350
aF10
aF247
aF10
aF206
aF248
aF350
aF154
aF8
aF108
aF90
aF167
aF9
aF216
aF223
aF155
aF312
aF23
aF121
aF291
aF345
aF83
aF155
aF293
aF23
aF256
aF67
aF73
aF330
aF285
aF19
aF176
aF131
aF157
aF69
aF84
aF61
aF279
aF91
aF72
aF118
aF83
aF266
aF3
aF33
aF94
aF34
aF339
aF44
aF83
aF170
aF210
aF62
aF7
aF70
aF194
aF38
aF177
aF147
aF109
aF322
aF352
aF55
aF96
aF94
aF164
aF40
aF85
aF224
aF150
aF8
aF8
aF180
aF147
aF339
aF338
aF50
aF111
aF181
aF55
aF256
aF91
aF346
aF334
aF77
aF327
aF101
aF102
aF121
aF123
aF320
aF242
aF335
aF172
aF136
aF287
aF356
aF73
aF283
aF185
aF239
aF3
aF60
aF195
aF130
aF315
aF292
aF74
aF264
aF40
aF326
aF241
aF269
aF278
aF86
aF191
aF47
aF178
aF72
aF169
aF320
aF44
aF314
aF111
aF29
aF158
aF91
aF267
aF335
aF56
aF224
aF291
aF254
aF56
aF343
aF163
aF144
aF148
aF9
aF203
aF253
aF39
aF103
aF171
aF257
aF119
aF82
aF320
aF274
aF312
aF278
aF83
aF357
aF148
aF23
aF98
aF316
aF293
aF111
aF183
aF285
aF302
aF332
aF109
aF147
aF131
aF31
aF178
aF334
aF254
aF301
aF203
aF205
aF48
aF143
aF237
aF50
aF339
aF100
aF72
aF218
aF332
aF63
aF278
aF112
aF32
aF304
aF76
aF333
aF71
aF189
aF357
aF45
aF187
aF179
aF320
aF125
aF102
aF63
aF252
aF355
aF15
aF161
aF4
aF87
aF135
aF61
aF270
aF194
aF147
aF27
aF168
aF146
aF269
aF171
aF47
aF118
aF327
aF165
aF114
aF132
aF192
aF153
aF95
aF132
aF190
aF308
aF346
aF282
aF172
aF259
aF155
aF128
aF318
aF292
aF241
aF206
aF320
aF73
aF43
aF334
aF143
aF34
aF78
aF253
aF308
aF338
aF190
aF275
aF28
aF159
aF202
aF239
aF324
aF346
aF332
aF41
aF324
aF253
aF217
aF217
aF14
aF353
aF32
aF166
aF228
aF98
aF166
aF266
aF203
aF180
aF215
aF357
aF8
aF151
aF253
aF338
aF306
aF10
aF241
aF206
aF313
aF125
aF157
aF276
aF225
aF349
aF8
aF166
aF33
aF350
aF356
aF143
aF260
aF6
aF334
aF172
aF280
aF278
aF69
aF184
aF253
aF55
aF8
aF323
aF122
aF87
aF0
aF127
aF239
aF260
aF233
aF51
aF89
aF176
aF203
aF26
aF334
aF186
aF83
aF139
aF248
aF165
aF183
aF236
aF43
aF215
aF77
aF77
aF114
aF224
aF268
aF43
aF201
aF50
aF313
aF8
aF43
aF304
aF39
aF242
aF123
aF70
aF52
aF178
aF232
aF179
aF83
aF251
aF156
aF292
aF146
aF122
aF209
aF194
aF172
aF202
aF285
aF38
aF287
aF278
aF111
aF47
aF232
aF349
aF174
aF346
aF77
aF176
aF190
aF325
aF109
aF118
aF173
aF31
aF343
aF283
aF243
aF286
aF18
aF108
aF249
aF67
aF258
aF36
aF86
aF39
aF333
aF338
aF41
aF50
aF25
aF274
aF25
aF271
aF356
aF108
aF73
aF290
aF195
aF211
aF257
aF290
aF147
aF286
aF109
aF264
aF182
aF338
aF29
aF247
aF131
aF282
aF204
aF100
aF69
aF298
aF344
aF82
aF122
aF258
aF12
aF51
aF122
aF187
aF50
aF82
aF30
aF252
aF296
aF243
aF41
aF288
aF188
aF22
aF221
aF282
aF196
aF283
aF91
aF155
aF235
aF276
aF62
aF32
aF290
aF233
aF196
aF231
aF64
aF65
aF322
aF274
aF188
aF58
aF29
aF270
aF43
aF225
aF247
aF219
aF19
aF56
aF81
aF72
aF72
aF104
aF168
aF316
aF176
aF178
aF154
aF103
aF204
aF213
aF77
aF307
aF76
aF17
aF291
aF346
aF262
aF154
aF333
aF125
aF27
aF212
aF263
aF257
aF155
aF188
aF77
aF164
aF198
aF50
aF234
aF139
aF182
aF285
aF214
aF240
aF147
aF332
aF200
aF47
aF175
aF231
aF126
aF249
aF290
aF137
aF81
aF132
aF283
aF151
aF190
aF125
aF202
aF203
aF173
aF325
aF226
aF231
aF69
aF124
aF287
aF170
aF192
aF56
aF282
aF131
aF306
aF200
aF319
aF93
aF28
aF320
aF326
aF8
aF144
aF31
aF357
aF299
aF203
aF176
aF187
aF242
aF42
aF338
aF287
aF69
aF20
aF136
aF199
aF247
aF166
aF172
aF176
aF48
aF311
aF144
aF188
aF73
aF125
aF212
aF291
aF294
aF22
aF70
aF173
aF242
aF63
aF208
aF14
aF131
aF313
aF162
aF342
aF352
aF42
aF20
aF12
aF170
aF55
aF301
aF99
aF74
aF157
aF109
aF354
aF335
aF171
aF138
aF127
aF333
aF154
aF193
aF124
aF338
aF212
aF201
aF338
aF356
aF50
aF217
aF242
aF294
aF3
aF239
aF70
aF243
aF140
aF268
aF185
aF37
aF140
aF338
aF175
aF339
aF28
aF231
aF131
aF287
aF225
aF257
aF2
aF186
aF256
aF69
aF288
aF222
aF185
aF243
aF249
aF291
aF137
aF262
aF246
aF169
aF19
aF110
aF316
aF332
aF237
aF6
aF313
aF143
aF71
aF108
aF174
aF216
aF150
aF240
aF20
aF8
aF74
aF304
aF183
aF356
aF268
aF98
aF54
aF160
aF83
aF262
aF314
aF56
aF86
aF61
aF55
aF246
aF196
aF194
aF356
aF120
aF123
aF130
aF103
aF225
aF61
aF217
aF328
aF261
aF258
aF221
aF187
aF208
aF233
aF272
aF306
aF329
aF132
aF28
aF39
aF239
aF95
aF198
aF74
aF231
aF11
aF183
aF160
aF83
aF124
aF260
aF267
aF181
aF26
aF174
aF257
aF216
aF266
aF304
aF27
aF184
aF16
aF353
aF266
aF81
aF338
aF246
aF188
aF228
aF246
aF74
aF256
aF327
aF330
aF98
aF182
aF132
aF329
aF178
aF357
aF20
aF140
aF262
aF103
aF131
aF338
aF146
aF175
aF74
aF180
aF140
aF39
aF304
aF216
aF239
aF259
aF233
aF287
aF179
aF34
aF302
aF242
aF268
aF89
aF334
aF311
aF160
aF50
aF187
aF225
aF285
aF45
aF128
aF139
aF219
aF187
aF215
aF268
aF296
aF278
aF69
aF207
aF278
aF128
aF45
aF54
aF180
aF10
aF334
aF241
aF312
aF225
aF95
aF287
aF352
aF338
aF302
aF109
aF215
aF337
aF222
aF181
aF118
aF216
aF268
aF252
aF20
aF203
aF334
aF94
aF239
aF223
aF20
aF300
aF213
aF296
aF23
aF172
aF204
aF338
aF339
aF266
aF73
aF296
aF93
aF76
aF350
aF266
aF151
aF91
aF322
aF219
aF278
aF273
aF180
aF196
aF60
aF194
aF91
aF340
aF338
aF171
aF208
aF302
aF349
aF2
aF165
aF190
aF322
aF132
aF297
aF288
aF88
aF342
aF127
aF41
aF87
aF239
aF171
aF299
aF39
aF301
aF39
aF4
aF170
aF196
aF65
aF128
aF185
aF265
aF163
aF72
aF25
aF268
aF227
aF319
aF323
aF120
aF83
aF61
aF296
aF246
aF194
aF252
aF338
aF187
aF356
aF78
aF45
aF239
aF176
aF147
aF338
aF95
aF27
aF188
aF351
aF124
aF320
aF35
aF173
aF216
aF68
aF256
aF208
aF197
aF356
aF170
aF139
aF47
aF318
aF147
aF239
aF139
aF103
aF177
aF172
aF246
aF172
aF92
aF147
aF95
aF209
aF121
aF100
aF326
aF290
aF109
aF51
aF303
aF35
aF20
aF180
aF335
aF186
aF217
aF338
aF247
aF185
aF206
aF31
aF108
aF207
aF13
aF176
aF288
aF263
aF161
aF267
aF286
aF31
aF32
aF61
aF314
aF31
aF306
aF204
aF233
aF180
aF72
aF197
aF217
aF47
aF178
aF147
aF282
aF179
aF337
aF210
aF87
aF103
aF135
aF108
aF144
aF274
aF289
aF52
aF35
aF38
aF286
aF139
aF300
aF169
aF165
aF278
aF170
aF208
aF180
aF344
aF296
aF271
aF20
aF109
aF343
aF93
aF41
aF266
aF195
aF9
aF194
aF47
aF95
aF180
aF195
aF338
aF49
aF103
aF236
aF285
aF113
aF349
aF76
aF185
aF37
aF118
aF37
aF275
aF48
aF132
aF195
aF180
aF308
aF108
aF151
aF315
aF338
aF326
aF102
aF328
aF42
aF100
aF282
aF158
aF153
aF316
aF298
aF157
aF258
aF84
aF89
aF23
aF143
aF55
aF246
aF219
aF173
aF234
aF212
aF170
aF141
aF190
aF158
aF347
aF158
aF283
aF196
aF70
aF351
aF34
aF62
aF275
aF290
aF50
aF266
aF175
aF334
aF338
aF61
aF62
aF167
aF147
aF12
aF234
aF209
aF290
aF299
aF39
aF108
aF192
aF141
aF188
aF55
aF98
aF239
aF163
aF157
aF295
aF19
aF160
aF165
aF41
aF211
aF24
aF217
aF236
aF215
aF104
aF144
aF172
aF356
aF238
aF230
aF52
aF131
aF344
aF39
aF116
aF16
aF227
aF189
aF274
aF296
aF155
aF147
aF210
aF86
aF9
aF146
aF150
aF154
aF327
aF38
aF324
aF313
aF147
aF170
aF272
aF256
aF28
aF334
aF188
aF131
aF122
aF181
aF319
aF280
aF0
aF137
aF178
aF18
aF179
aF247
aF96
aF50
aF7
aF119
aF145
aF54
aF87
aF273
aF124
aF302
aF344
aF179
aF231
aF87
aF357
aF226
aF234
aF38
aF63
aF173
aF99
aF159
aF56
aF141
aF267
aF139
aF66
aF115
aF301
aF338
aF10
aF119
aF289
aF239
aF212
aF124
aF99
aF52
aF41
aF349
aF37
aF91
aF187
aF317
aF347
aF31
aF170
aF29
aF355
aF63
aF12
aF283
aF176
aF294
aF194
aF176
aF254
aF320
aF157
aF56
aF189
aF202
aF328
aF118
aF190
aF232
aF73
aF8
aF61
aF34
aF142
aF288
aF240
aF269
aF63
aF147
aF212
aF270
aF139
aF179
aF181
aF143
aF259
aF266
aF243
aF316
aF94
aF247
aF132
aF45
aF125
aF30
aF157
aF29
aF256
aF159
aF147
aF317
aF57
aF253
aF42
aF172
aF211
aF195
aF267
aF227
aF204
aF136
aF151
aF267
aF37
aF132
aF124
aF194
aF188
aF178
aF176
aF169
aF102
aF9
aF159
aF77
aF86
aF189
aF297
aF224
aF206
aF87
aF142
aF350
aF283
aF125
aF56
aF199
aF75
aF187
aF90
aF211
aF171
aF61
aF221
aF163
aF174
aF121
aF356
aF176
aF22
aF165
aF202
aF147
aF311
aF336
aF192
aF219
aF72
aF3
aF162
aF86
aF356
aF51
aF222
aF55
aF225
aF198
aF288
aF67
aF356
aF176
aF242
aF323
aF42
aF38
aF86
aF289
aF234
aF10
aF334
aF89
aF67
aF196
aF173
aF323
aF252
aF172
aF320
aF220
aF50
aF246
aF137
aF15
aF256
aF225
aF146
aF218
aF196
aF343
aF53
aF19
aF99
aF72
aF217
aF321
aF208
aF5
aF146
aF131
aF122
aF168
aF31
aF194
aF349
aF4
aF264
aF102
aF297
aF320
aF204
aF145
aF48
aF62
aF342
aF21
aF200
aF356
aF98
aF219
aF213
aF232
aF48
aF231
aF20
aF127
aF172
aF302
aF351
aF23
aF48
aF285
aF326
aF283
aF169
aF299
aF281
aF169
aF61
aF233
aF2
aF192
aF87
aF272
aF109
aF74
aF180
aF243
aF206
aF283
aF190
aF212
aF231
aF63
aF71
aF302
aF56
aF87
aF27
aF102
aF102
aF356
aF329
aF125
aF336
aF287
aF135
aF61
aF105
aF303
aF162
aF348
aF332
aF321
aF331
aF131
aI5960
I6821
tp7
a.