(lp1
((lp2
F323
aF76
aF11
aF250
aF353
aF116
aF140
aF224
aF307
aF339
aF171
aF330
aF72
aF55
aF87
aF289
aF192
aF58
aF345
aF211
aF158
aF328
aF58
aF249
aF151
aF0
aF114
aF53
aF311
aF220
aF6
aF88
aF83
aF5
aF212
aF9
aF93
aF183
aF188
aF127
aF52
aF27
aF55
aF298
aF72
aF353
aF45
aF36
aF295
aF224
aF245
aF77
aF158
aF104
aF158
aF62
aF97
aF16
aF22
aF6
aF120
aF119
aF176
aF282
aF319
aF147
aF299
aF301
aF62
aF296
aF4
aF183
aF81
aF315
aF121
aF108
aF153
aF141
aF210
aF122
aF220
aF119
aF173
aF49
aF311
aF265
aF280
aF353
aF127
aF69
aF256
aF347
aF307
aF62
aF154
aF304
aF31
aF291
aF237
aF319
aF347
aF88
aF258
aF66
aF194
aF49
aF345
aF319
aF283
aF64
aF137
aF137
aF183
aF69
aF96
aF260
aF174
aF221
aF196
aF60
aF74
aF89
aF283
aF86
aF36
aF243
aF29
aF172
aF122
aF14
aF88
aF74
aF172
aF101
aF149
aF252
aF324
aF62
aF240
aF243
aF104
aF88
aF5
aF23
aF145
aF107
aF328
aF151
aF203
aF160
aF81
aF14
aF6
aF353
aF295
aF346
aF354
aF58
aF319
aF193
aF139
aF256
aF43
aF37
aF71
aF58
aF236
aF33
aF246
aF195
aF183
aF75
aF182
aF283
aF193
aF136
aF105
aF305
aF88
aF255
aF34
aF204
aF315
aF188
aF323
aF339
aF147
aF249
aF31
aF210
aF94
aF87
aF88
aF63
aF115
aF88
aF291
aF69
aF328
aF120
aF348
aF224
aF147
aF88
aF302
aF142
aF1
aF291
aF156
aF224
aF311
aF340
aF103
aF190
aF182
aF272
aF76
aF44
aF203
aF194
aF4
aF251
aF144
aF183
aF14
aF65
aF179
aF141
aF118
aF195
aF317
aF157
aF258
aF190
aF46
aF334
aF244
aF58
aF76
aF81
aF155
aF160
aF238
aF158
aF270
aF78
aF100
aF142
aF296
aF104
aF279
aF57
aF198
aF256
aF120
aF323
aF44
aF335
aF308
aF319
aF265
aF222
aF138
aF145
aF147
aF63
aF120
aF285
aF237
aF336
aF237
aF329
aF59
aF7
aF203
aF30
aF159
aF318
aF203
aF6
aF284
aF252
aF296
aF149
aF133
aF295
aF177
aF214
aF348
aF88
aF145
aF343
aF355
aF354
aF145
aF172
aF249
aF88
aF198
aF152
aF31
aF87
aF53
aF147
aF344
aF254
aF317
aF245
aF138
aF129
aF187
aF221
aF19
aF110
aF196
aF295
aF202
aF67
aF127
aF188
aF224
aF88
aF88
aF318
aF228
aF177
aF158
aF283
aF284
aF266
aF103
aF343
aF46
aF292
aF293
aF249
aF81
aF314
aF158
aF318
aF88
aF255
aF107
aF237
aF35
aF15
aF72
aF118
aF251
aF251
aF323
aF228
aF114
aF98
aF309
aF83
aF36
aF15
aF70
aF239
aF151
aF115
aF147
aF355
aF334
aF299
aF282
aF240
aF333
aF212
aF281
aF24
aF338
aF244
aF318
aF278
aF139
aF109
aF184
aF347
aF58
aF251
aF203
aF281
aF166
aF243
aF194
aF19
aF80
aF287
aF262
aF145
aF333
aF130
aF65
aF102
aF222
aF265
aF88
aF151
aF78
aF213
aF299
aF211
aF173
aF160
aF61
aF341
aF222
aF334
aF353
aF251
aF106
aF224
aF215
aF48
aF7
aF225
aF55
aF62
aF199
aF339
aF242
aF303
aF238
aF323
aF115
aF341
aF180
aF5
aF295
aF105
aF238
aF220
aF142
aF162
aF106
aF312
aF244
aF357
aF116
aF347
aF324
aF12
aF239
aF18
aF215
aF162
aF167
aF228
aF329
aF29
aF288
aF271
aF79
aF243
aF147
aF179
aF181
aF34
aF198
aF257
aF309
aF198
aF189
aF104
aF81
aF33
aF223
aF121
aF240
aF286
aF339
aF271
aF167
aF120
aF345
aF238
aF191
aF176
aF102
aF310
aF159
aF36
aF247
aF245
aF139
aF138
aF137
aF198
aF275
aF283
aF254
aF318
aF180
aF219
aF226
aF266
aF88
aF2
aF229
aF350
aF288
aF196
aF105
aF5
aF170
aF210
aF331
aF120
aF162
aF294
aF147
aF138
aF189
aF156
aF208
aF282
aF151
aF186
aF290
aF214
aF265
aF24
aF19
aF241
aF33
aF127
aF73
aF282
aF140
aF178
aF330
aF44
aF215
aF204
aF275
aF204
aF328
aF77
aF214
aF29
aF149
aF326
aF83
aF50
aF104
aF316
aF42
aF110
aF283
aF299
aF280
aF334
aF176
aF66
aF309
aF159
aF280
aF245
aF200
aF318
aF258
aF299
aF238
aF184
aF351
aF286
aF88
aF350
aF310
aF198
aF226
aF7
aF280
aF174
aF188
aF339
aF189
aF175
aF331
aF7
aF309
aF79
aF256
aF37
aF103
aF314
aF347
aF251
aF225
aF138
aF212
aF210
aF89
aF9
aF5
aF35
aF357
aF192
aF267
aF122
aF14
aF80
aF248
aF204
aF118
aF81
aF100
aF326
aF140
aF202
aF319
aF131
aF285
aF127
aF83
aF86
aF329
aF58
aF281
aF341
aF119
aF73
aF340
aF65
aF307
aF306
aF226
aF323
aF187
aF138
aF133
aF138
aF271
aF174
aF275
aF123
aF119
aF190
aF157
aF198
aF240
aF221
aF7
aF189
aF323
aF116
aF204
aF67
aF253
aF203
aF172
aF93
aF58
aF80
aF128
aF74
aF355
aF115
aF47
aF16
aF316
aF316
aF335
aF19
aF90
aF330
aF303
aF271
aF218
aF263
aF257
aF242
aF193
aF310
aF210
aF246
aF340
aF296
aF141
aF135
aF42
aF238
aF101
aF113
aF47
aF147
aF283
aF303
aF10
aF296
aF142
aF27
aF18
aF293
aF36
aF167
aF149
aF104
aF158
aF140
aF103
aF288
aF226
aF144
aF349
aF283
aF209
aF171
aF179
aF50
aF36
aF197
aF198
aF198
aF238
aF167
aF121
aF292
aF352
aF9
aF116
aF83
aF147
aF345
aF172
aF179
aF239
aF203
aF279
aF160
aF141
aF242
aF218
aF310
aF292
aF27
aF285
aF238
aF139
aF58
aF140
aF121
aF238
aF107
aF90
aF96
aF252
aF122
aF158
aF342
aF272
aF167
aF16
aF347
aF281
aF349
aF328
aF210
aF188
aF8
aF88
aF35
aF182
aF251
aF356
aF13
aF265
aF82
aF113
aF298
aF293
aF244
aF122
aF244
aF343
aF102
aF62
aF87
aF76
aF250
aF291
aF93
aF120
aF138
aF312
aF341
aF97
aF244
aF323
aF267
aF127
aF339
aF284
aF257
aF256
aF252
aF182
aF238
aF319
aF197
aF49
aF305
aF309
aF346
aF310
aF285
aF202
aF158
aF154
aF183
aF80
aF341
aF73
aF221
aF183
aF240
aF270
aF119
aF293
aF63
aF347
aF202
aF19
aF19
aF263
aF206
aF160
aF179
aF96
aF238
aF236
aF140
aF176
aF36
aF261
aF138
aF31
aF182
aF332
aF326
aF140
aF346
aF147
aF286
aF38
aF244
aF251
aF227
aF25
aF169
aF121
aF98
aF120
aF356
aF75
aF184
aF162
aF57
aF240
aF270
aF354
aF265
aF42
aF343
aF190
aF171
aF146
aF24
aF180
aF94
aF219
aF36
aF56
aF272
aF350
aF267
aF4
aF102
aF214
aF115
aF63
aF226
aF320
aF136
aF158
aF225
aF120
aF319
aF141
aF63
aF282
aF115
aF357
aF212
aF65
aF285
aF182
aF138
aF109
aF172
aF283
aF336
aF294
aF121
aF204
aF147
aF271
aF308
aF131
aF152
aF328
aF87
aF199
aF318
aF170
aF140
aF119
aF137
aF243
aF200
aF239
aF107
aF99
aF220
aF342
aF272
aF159
aF74
aF15
aF120
aF260
aF240
aF303
aF238
aF191
aF96
aF284
aF94
aF281
aF342
aF292
aF104
aF300
aF148
aF352
aF146
aF317
aF238
aF302
aF302
aF49
aF136
aF127
aF63
aF167
aF306
aF269
aF350
aF312
aF341
aF275
aF240
aF337
aF276
aF44
aF347
aF11
aF184
aF296
aF354
aF79
aF102
aF183
aF282
aF145
aF132
aF198
aF55
aF299
aF4
aF32
aF271
aF106
aF138
aF227
aF286
aF29
aF105
aF36
aF190
aF281
aF306
aF347
aF319
aF36
aF121
aF299
aF4
aF104
aF308
aF122
aF265
aF147
aF334
aF299
aF219
aF292
aF341
aF94
aF147
aF121
aF340
aF231
aF65
aF186
aF14
aF120
aF27
aF230
aF117
aF285
aF339
aF188
aF275
aF236
aF331
aF302
aF225
aF89
aF295
aF297
aF190
aF33
aF236
aF145
aF15
aF94
aF102
aF33
aF279
aF193
aF244
aF219
aF292
aF109
aF311
aF166
aF317
aF257
aF301
aF318
aF74
aF337
aF202
aF88
aF214
aF23
aF306
aF211
aF88
aF120
aF194
aF245
aF72
aF311
aF225
aF120
aF169
aF262
aF247
aF123
aF188
aF141
aF203
aF267
aF147
aF147
aF290
aF243
aF6
aF270
aF116
aF198
aF214
aF219
aF310
aF357
aF344
aF122
aF59
aF203
aF232
aF330
aF107
aF188
aF342
aF310
aF15
aF157
aF127
aF77
aF180
aF6
aF138
aF240
aF67
aF152
aF210
aF191
aF78
aF302
aF266
aF131
aF145
aF62
aF309
aF77
aF12
aF120
aF64
aF320
aF5
aF268
aF194
aF25
aF66
aF94
aF327
aF199
aF204
aF120
aF137
aF266
aF309
aF198
aF140
aF167
aF58
aF40
aF171
aF180
aF282
aF25
aF171
aF136
aF296
aF103
aF116
aF34
aF350
aF188
aF292
aF348
aF324
aF24
aF94
aF63
aF254
aF225
aF276
aF329
aF76
aF234
aF34
aF197
aF258
aF157
aF212
aF112
aF295
aF119
aF167
aF190
aF116
aF138
aF294
aF172
aF71
aF203
aF202
aF286
aF34
aF207
aF99
aF118
aF89
aF209
aF189
aF29
aF188
aF310
aF58
aF208
aF309
aF244
aF12
aF223
aF214
aF319
aF37
aF112
aF7
aF17
aF231
aF127
aF302
aF353
aF149
aF292
aF157
aF78
aF196
aF272
aF131
aF159
aF295
aF9
aF234
aF157
aF220
aF94
aF329
aF302
aF242
aF229
aF5
aF88
aF303
aF72
aF17
aF320
aF251
aF128
aF245
aF169
aF269
aF72
aF344
aF128
aF323
aF181
aF43
aF238
aF174
aF67
aF301
aF7
aF219
aF290
aF159
aF158
aF114
aF295
aF309
aF337
aF154
aF22
aF204
aF153
aF334
aF139
aF205
aF323
aF304
aF99
aF12
aF58
aF29
aF262
aF270
aF167
aF252
aF316
aF317
aF189
aF158
aF25
aF315
aF88
aF307
aF109
aF44
aF111
aF4
aF134
aF145
aF167
aF337
aF176
aF65
aF252
aF251
aF243
aF70
aF268
aF147
aF171
aF283
aF63
aF350
aF64
aF244
aF317
aF210
aF307
aF279
aF104
aF33
aF176
aF98
aF115
aF290
aF151
aF105
aF290
aF238
aF17
aF255
aF316
aF225
aF116
aF120
aF122
aF258
aF131
aF180
aF56
aF286
aF92
aF260
aF292
aF62
aF80
aF251
aF243
aF281
aF36
aF5
aF265
aF318
aF256
aF342
aF147
aF334
aF127
aF295
aF147
aF83
aF191
aF36
aF107
aF310
aF222
aF255
aF91
aF137
aF108
aF204
aF118
aF251
aF53
aF59
aF286
aF76
aF203
aF120
aF118
aF72
aF306
aF116
aF188
aF18
aF226
aF90
aF283
aF324
aF119
aF47
aF31
aF341
aF271
aF118
aF57
aF250
aF227
aF2
aF257
aF306
aF318
aF65
aF7
aF72
aF272
aF10
aF134
aF354
aF158
aF269
aF348
aF59
aF146
aF147
aF33
aF184
aF88
aF319
aF83
aF299
aF65
aF303
aF349
aF320
aF104
aF253
aF353
aF345
aF49
aF225
aF129
aF239
aF78
aF286
aF286
aF276
aF72
aF281
aF350
aF33
aF312
aF37
aF74
aF6
aF309
aF149
aF356
aF159
aF340
aF214
aF240
aF315
aF340
aF222
aF95
aF228
aF243
aF289
aF170
aF253
aF156
aF14
aF47
aF88
aF224
aF127
aF271
aF33
aF116
aF254
aF232
aF165
aF348
aF220
aF259
aF93
aF299
aF300
aF244
aF158
aF353
aF41
aF182
aF281
aF351
aF243
aF112
aF345
aF63
aF275
aF105
aF53
aF198
aF154
aF113
aF42
aF322
aF66
aF9
aF271
aF330
aF268
aF189
aF291
aF327
aF241
aF137
aF120
aF209
aF314
aF239
aF350
aF319
aF288
aF29
aF337
aF219
aF226
aF42
aF310
aF327
aF98
aF95
aF238
aF329
aF224
aF16
aF240
aF40
aF292
aF219
aF215
aF256
aF214
aF227
aF39
aF203
aF203
aF20
aF340
aF146
aF94
aF98
aF120
aF41
aF225
aF266
aF221
aF238
aF131
aF220
aF152
aF106
aF257
aF177
aF136
aF6
aF330
aF225
aF144
aF257
aF98
aF147
aF119
aF304
aF283
aF95
aF347
aF72
aF0
aF194
aF81
aF73
aF303
aF321
aF109
aF342
aF271
aF5
aF55
aF260
aF245
aF315
aF188
aF343
aF171
aF125
aF347
aF350
aF152
aF60
aF49
aF319
aF236
aF42
aF226
aF169
aF317
aF200
aF296
aF209
aF145
aF343
aF174
aF271
aF176
aF88
aF107
aF55
aF27
aF162
aF139
aF288
aF334
aF23
aF152
aF214
aF29
aF138
aF119
aF278
aF209
aF121
aF251
aF214
aF302
aF253
aF226
aF312
aF82
aF126
aF53
aF63
aF292
aF101
aF87
aF158
aF256
aF138
aF225
aF82
aF351
aF12
aF158
aF51
aF47
aF270
aF252
aF193
aF76
aF256
aF136
aF219
aF249
aF65
aF108
aF19
aF301
aF36
aF173
aF208
aF296
aF340
aF179
aF94
aF35
aF331
aF31
aF131
aF206
aF171
aF87
aF334
aF239
aF151
aF2
aF23
aF125
aF105
aF198
aF114
aF245
aF75
aF132
aF64
aF14
aF9
aF164
aF189
aF119
aF266
aF339
aF243
aF160
aF121
aF149
aF50
aF203
aF218
aF342
aF35
aF160
aF284
aF129
aF352
aF249
aF171
aF131
aF270
aF207
aF253
aF290
aF312
aF140
aF245
aF8
aF186
aF242
aF167
aF115
aF215
aF279
aF335
aF306
aF185
aF173
aF25
aF171
aF313
aF348
aF295
aF111
aF311
aF320
aF32
aF70
aF79
aF73
aF286
aF256
aF14
aF12
aF258
aF258
aF252
aF138
aF127
aF23
aF45
aF117
aF290
aF259
aF165
aF222
aF329
aF304
aF47
aF0
aF126
aF179
aF119
aF137
aF255
aF14
aF139
aF318
aF4
aF88
aF29
aF17
aF167
aF58
aF186
aF74
aF134
aF77
aF295
aF293
aF104
aF175
aF247
aF247
aF354
aF67
aF289
aF299
aF302
aF19
aF242
aF295
aF242
aF50
aF289
aF222
aF247
aF82
aF75
aF348
aF244
aF204
aF134
aF319
aF111
aF238
aF282
aF149
aF176
aF168
aF23
aF61
aF188
aF162
aF127
aF62
aF160
aF116
aF226
aF202
aF245
aF340
aF147
aF9
aF87
aF167
aF95
aF296
aF270
aF283
aF19
aF227
aF318
aF123
aF141
aF319
aF265
aF339
aF256
aF57
aF226
aF67
aF279
aF243
aF341
aF62
aF12
aF303
aF210
aF258
aF224
aF234
aF203
aF7
aF310
aF127
aF203
aF12
aF289
aF292
aF265
aF285
aF80
aF160
aF334
aF29
aF240
aF285
aF111
aF140
aF310
aF63
aF151
aF126
aF58
aF128
aF257
aF330
aF165
aF83
aF149
aF330
aF36
aF35
aF255
aF284
aF323
aF14
aF17
aF309
aF147
aF151
aF247
aF281
aF127
aF353
aF220
aF167
aF51
aF241
aF131
aF210
aF164
aF26
aF271
aF260
aF272
aF256
aF203
aF171
aF234
aF265
aF261
aF253
aF317
aF94
aF327
aF88
aF299
aF36
aF56
aF312
aF331
aF226
aF265
aF144
aF29
aF154
aF256
aF271
aF51
aF340
aF260
aF88
aF257
aF39
aF250
aF100
aF139
aF295
aF36
aF228
aF11
aF119
aF326
aF222
aF294
aF53
aF312
aF190
aF189
aF296
aF179
aF290
aF15
aF55
aF326
aF198
aF117
aF58
aF222
aF280
aF288
aF123
aF283
aF270
aF88
aF167
aF226
aF327
aF310
aF290
aF176
aF69
aF9
aF188
aF241
aF244
aF306
aF307
aF209
aF19
aF71
aF105
aF169
aF198
aF285
aF128
aF53
aF158
aF83
aF76
aF244
aF350
aF107
aF269
aF17
aF44
aF221
aF283
aF324
aF256
aF240
aF146
aF303
aF197
aF327
aF1
aF312
aF168
aF318
aF88
aF63
aF180
aF353
aF238
aF53
aF290
aF118
aF103
aF125
aF190
aF251
aF210
aF280
aF122
aF290
aF57
aF121
aF121
aF127
aF272
aF100
aF212
aF270
aF257
aF203
aF123
aF67
aF121
aF313
aF66
aF138
aF225
aF58
aF302
aF196
aF29
aF267
aF12
aF145
aF256
aF8
aF303
aF295
aF210
aF304
aF103
aF268
aF243
aF62
aF309
aF22
aF275
aF62
aF301
aF7
aF281
aF315
aF278
aF184
aF97
aF103
aF353
aF88
aF54
aF255
aF319
aF6
aF245
aF241
aF139
aF76
aF147
aF66
aF79
aF96
aF350
aF127
aF81
aF27
aF244
aF138
aF190
aF322
aF86
aF283
aF258
aF145
aF339
aF11
aF249
aF295
aF319
aF224
aF127
aF281
aF118
aF88
aF227
aF202
aF189
aF241
aF258
aF338
aF302
aF327
aF66
aF208
aF187
aF316
aF84
aF343
aF63
aF88
aF94
aF120
aF119
aF291
aF167
aF306
aF82
aF332
aF305
aF88
aF4
aF168
aF305
aF357
aF319
aF297
aF318
aF45
aF27
aF258
aF223
aF38
aF204
aF147
aF27
aF138
aF250
aF72
aF332
aF118
aF62
aF58
aF57
aF102
aF27
aF292
aF198
aF206
aF80
aF357
aF158
aF146
aF127
aF306
aF224
aF224
aF142
aF97
aF78
aF55
aF80
aF106
aF138
aF347
aF120
aF106
aF318
aF258
aF244
aF120
aF23
aF52
aF302
aF350
aF240
aF22
aF353
aF190
aF315
aF318
aF245
aF258
aF214
aF202
aF147
aF87
aF262
aF340
aF326
aF197
aF17
aF87
aF295
aF28
aF227
aF312
aF319
aF295
aF120
aF34
aF167
aF114
aF158
aF9
aF139
aF152
aF191
aF28
aF255
aF284
aF184
aF329
aF104
aF63
aF147
aF356
aF132
aF318
aF147
aF119
aF86
aF117
aF324
aF310
aF108
aF131
aF147
aF340
aF139
aF236
aF142
aF62
aF66
aF326
aF170
aF108
aF179
aF275
aF251
aF115
aF302
aF87
aF179
aF317
aF80
aF341
aF276
aF138
aF222
aF252
aF148
aF227
aF172
aF215
aF308
aF94
aF50
aF238
aF330
aF182
aF318
aF348
aF154
aF227
aF270
aF190
aF167
aF262
aF301
aF126
aF107
aF178
aF265
aF156
aF346
aF137
aF35
aF334
aF150
aF210
aF74
aF65
aF344
aF318
aF19
aF149
aF119
aF88
aF0
aF224
aF237
aF194
aF291
aF135
aF170
aF145
aF244
aF105
aF202
aF249
aF242
aF29
aF313
aF145
aF139
aF83
aF182
aF179
aF211
aF9
aF192
aF81
aF140
aF19
aF190
aF308
aF188
aF124
aF117
aF328
aF184
aF302
aF182
aF342
aF298
aF182
aF271
aF203
aF115
aF46
aF249
aF252
aF302
aF16
aF197
aF50
aF316
aF88
aF271
aF347
aF226
aF36
aF204
aF294
aF297
aF175
aF249
aF260
aF176
aF63
aF145
aF275
aF137
aF80
aF190
aF357
aF19
aF343
aF81
aF212
aF109
aF46
aF119
aF131
aF145
aF310
aF11
aF179
aF19
aF252
aF269
aF94
aF140
aF171
aF58
aF222
aF100
aF88
aF77
aF257
aF260
aF23
aF100
aF195
aF123
aF78
aF24
aF66
aF354
aF241
aF326
aF137
aF272
aF31
aF147
aF83
aF146
aF147
aF59
aF223
aF134
aF249
aF303
aF32
aF76
aF147
aF62
aF235
aF88
aF58
aF79
aF127
aF182
aF29
aF318
aF295
aF238
aF241
aF39
aF117
aF122
aF243
aF333
aF326
aF258
aF108
aF354
aF255
aF258
aF214
aF75
aF142
aF4
aF14
aF238
aF19
aF248
aF302
aF241
aF353
aF239
aF238
aF47
aF114
aF154
aF295
aF34
aF121
aF244
aF12
aF267
aF260
aF107
aF203
aF95
aF138
aF277
aF36
aF204
aF261
aF51
aF214
aF348
aF254
aF302
aF37
aF246
aF120
aF319
aF346
aF230
aF190
aF119
aF233
aF40
aF303
aF244
aF151
aF146
aF88
aF342
aF344
aF93
aF352
aF167
aF4
aF254
aF197
aF245
aF206
aF342
aF260
aF128
aF157
aF318
aF309
aF125
aF131
aF88
aF324
aF312
aF138
aF120
aF283
aF58
aF348
aF30
aF27
aF265
aF88
aF76
aF220
aF67
aF144
aF149
aF200
aF244
aF194
aF280
aF138
aF36
aF225
aF321
aF13
aF309
aF340
aF319
aF319
aF39
aF341
aF87
aF195
aF241
aF190
aF123
aF190
aF53
aF193
aF244
aF80
aF36
aF15
aF5
aF188
aF305
aF256
aF318
aF79
aF268
aF24
aF165
aF204
aF290
aF219
aF196
aF218
aF87
aF255
aF121
aF119
aF67
aF52
aF34
aF151
aF271
aF141
aF15
aF107
aF120
aF302
aF76
aF319
aF17
aF165
aF219
aF186
aF153
aF147
aF354
aF342
aF134
aF97
aF350
aF17
aF86
aF33
aF306
aF116
aF235
aF285
aF73
aF344
aF342
aF203
aF188
aF131
aF74
aF210
aF51
aF184
aF88
aF198
aF243
aF166
aF203
aF95
aF345
aF183
aF79
aF258
aF310
aF215
aF47
aF203
aF35
aF138
aF238
aF235
aF330
aF42
aF141
aF260
aF86
aF204
aF264
aF216
aF179
aF5
aF167
aF0
aF252
aF225
aF221
aF123
aF319
aF353
aF209
aF173
aF105
aF238
aF221
aF112
aF239
aF58
aF103
aF17
aF98
aF55
aF318
aF11
aF211
aF122
aF172
aF171
aF347
aF75
aF312
aF58
aF6
aF121
aF86
aF193
aF7
aF159
aF173
aF240
aF268
aF155
aF86
aF222
aF318
aF339
aF252
aF239
aF285
aF238
aF292
aF88
aF250
aF165
aF26
aF158
aF286
aF270
aF285
aF237
aF306
aF190
aF129
aF323
aF23
aF104
aF107
aF116
aF214
aF29
aF157
aF330
aF32
aF212
aF204
aF210
aF118
aF72
aF298
aF351
aF226
aF39
aF128
aF198
aF281
aF167
aF190
aF182
aF30
aF238
aF241
aF65
aF55
aF221
aF323
aF211
aF209
aF11
aF357
aF80
aF240
aF296
aF38
aF116
aF246
aF353
aF186
aF50
aF306
aF265
aF29
aF244
aF108
aF304
aF203
aF62
aF331
aF345
aF98
aF324
aF147
aF174
aF227
aF236
aF83
aF147
aF212
aF3
aF292
aF279
aF29
aF341
aF264
aF142
aF240
aF347
aF265
aF326
aF258
aF71
aF136
aF63
aF334
aF275
aF127
aF267
aF94
aF244
aF306
aF136
aF281
aF204
aF282
aF271
aF44
aF129
aF98
aF3
aF127
aF157
aF323
aF210
aF265
aF248
aF344
aF78
aF47
aF78
aF245
aF182
aF310
aF198
aF203
aF42
aF295
aF143
aF119
aF175
aF203
aF284
aF198
aF245
aF98
aF265
aF98
aF157
aF34
aF147
aF248
aF196
aF224
aF323
aF281
aF267
aF90
aF221
aF244
aF126
aF176
aF189
aF118
aF309
aF172
aF210
aF311
aF293
aF72
aF284
aF52
aF127
aF144
aF158
aF297
aF183
aF86
aF270
aF270
aF118
aF17
aF172
aF193
aF263
aF33
aF104
aF204
aF123
aF285
aF174
aF214
aF286
aF265
aF63
aF354
aF221
aF184
aF14
aF239
aF241
aF173
aF109
aF292
aF14
aF225
aF3
aF16
aF36
aF327
aF323
aF35
aF14
aF342
aF256
aF194
aF356
aF175
aF260
aF249
aF142
aF33
aF193
aF46
aF258
aF58
aF66
aF147
aF296
aF139
aF252
aF288
aF317
aF157
aF0
aF251
aF181
aF83
aF270
aF42
aF290
aF106
aF283
aF34
aF272
aF341
aF315
aF311
aF323
aF14
aF147
aF188
aF23
aF101
aF186
aF252
aF196
aF188
aF119
aF14
aF35
aF12
aF279
aF214
aF309
aF183
aF7
aF92
aF17
aF144
aF305
aF7
aF105
aF131
aF140
aF228
aF234
aF183
aF152
aF134
aF83
aF119
aF23
aF341
aF279
aF341
aF354
aF118
aF255
aF291
aF175
aF257
aF88
aF73
aF165
aF160
aF228
aF309
aF354
aF266
aF236
aF6
aF244
aF122
aF254
aF117
aF309
aF224
aF245
aF266
aF285
aF353
aF2
aF123
aF57
aF105
aF238
aF183
aF313
aF256
aF346
aF105
aF65
aF240
aF292
aF38
aF279
aF202
aF220
aF145
aF98
aF100
aF100
aF225
aF151
aF245
aF253
aF301
aF131
aF201
aF246
aF279
aF105
aF145
aF198
aF350
aF184
aF200
aF332
aF353
aF284
aF139
aF228
aF254
aF140
aF179
aF107
aF312
aF327
aF87
aF109
aF9
aF245
aF306
aF238
aF282
aF203
aF128
aF134
aF128
aF315
aF146
aF125
aF142
aF295
aF189
aF222
aF304
aF198
aF6
aF203
aF121
aF53
aF337
aF239
aF5
aF281
aF314
aF140
aF7
aF128
aF228
aF145
aF139
aF243
aF121
aF152
aF230
aF299
aF295
aF211
aF120
aF347
aF303
aF226
aF95
aF271
aF312
aF227
aF121
aF329
aF221
aF323
aF286
aF198
aF341
aF157
aF38
aF286
aF258
aF104
aF283
aF356
aF74
aF174
aF226
aF172
aF58
aF157
aF257
aF311
aF33
aF63
aF80
aF331
aF342
aF271
aF69
aF147
aF119
aF77
aF295
aF339
aF58
aF140
aF323
aF105
aF172
aF82
aF347
aF249
aF237
aF141
aF147
aF237
aF167
aF221
aF5
aF206
aF281
aF36
aF228
aF229
aF267
aF353
aF145
aF147
aF148
aF225
aF238
aF228
aF105
aF88
aF131
aF215
aF34
aF286
aF214
aF282
aF140
aF222
aF173
aF209
aF247
aF12
aF14
aF37
aF36
aF303
aF302
aF295
aF356
aF236
aF76
aF1
aF303
aF198
aF345
aF67
aF341
aF350
aF58
aF243
aF354
aF5
aF295
aF52
aF42
aF237
aF198
aF226
aF180
aF190
aF147
aF57
aF249
aF111
aF58
aF353
aF318
aF338
aF122
aF190
aF302
aF274
aF317
aF183
aF222
aF67
aF238
aF72
aF204
aF219
aF294
aF101
aF117
aF212
aF341
aF310
aF165
aF59
aF146
aF81
aF190
aF172
aF267
aF243
aF36
aF19
aF12
aF27
aF295
aF177
aF136
aF134
aF318
aF70
aF224
aF84
aF166
aF120
aF36
aF343
aF189
aF296
aF249
aF343
aF171
aF3
aF65
aF229
aF340
aF281
aF319
aF296
aF269
aF354
aF250
aF224
aF147
aF189
aF19
aF247
aF11
aF221
aF2
aF228
aF340
aF223
aF240
aF323
aF183
aF109
aF22
aF209
aF305
aF350
aF240
aF243
aF240
aF94
aF319
aF154
aF249
aF280
aF48
aF39
aF338
aF58
aF237
aF142
aF81
aF36
aF197
aF256
aF119
aF127
aF167
aF306
aF12
aF105
aF239
aF9
aF179
aF115
aF67
aF212
aF161
aF192
aF334
aF104
aF353
aF115
aF119
aF271
aF65
aF109
aF266
aF162
aF151
aF222
aF345
aF342
aF66
aF340
aF340
aF240
aF280
aF78
aF146
aF244
aF243
aF36
aF120
aF244
aF88
aF145
aF286
aF275
aF155
aF53
aF347
aF32
aF223
aF142
aF310
aF265
aF354
aF260
aF313
aF277
aF45
aF160
aF51
aF58
aF29
aF204
aF337
aF246
aF283
aF222
aF88
aF309
aF288
aF147
aF119
aF304
aF158
aF105
aF342
aF126
aF240
aF80
aF158
aF145
aF244
aF188
aF245
aF240
aF117
aF189
aF77
aF267
aF145
aF88
aF7
aF340
aF174
aF357
aF318
aF128
aF323
aF339
aF250
aF319
aF118
aF225
aF295
aF115
aF98
aF5
aF74
aF145
aF302
aF219
aF244
aF329
aF167
aF292
aF269
aF52
aF350
aF214
aF256
aF309
aF269
aF75
aF140
aF62
aF57
aF226
aF202
aF310
aF106
aF220
aF222
aF319
aF140
aF343
aF225
aF34
aF0
aF244
aF270
aF330
aF181
aF17
aF236
aF6
aF228
aF58
aF70
aF80
aF81
aF186
aF179
aF236
aF158
aF210
aF131
aF55
aF36
aF318
aF238
aF33
aF158
aF91
aF107
aF218
aF194
aF269
aF88
aF112
aF3
aF222
aF202
aF294
aF302
aF158
aF228
aF22
aF323
aF107
aF179
aF85
aF186
aF222
aF317
aF145
aF78
aF125
aF245
aF251
aF285
aF170
aF174
aF241
aF35
aF66
aF181
aF270
aF197
aF184
aF15
aF339
aF78
aF243
aF7
aF87
aF147
aF233
aF201
aF323
aF152
aF101
aF272
aF196
aF339
aF312
aF349
aF98
aF218
aF236
aF110
aF144
aF293
aF58
aF36
aF102
aF65
aF286
aF36
aF111
aF112
aF202
aF345
aF80
aF194
aF343
aF340
aF87
aF299
aF23
aF167
aF112
aF120
aF88
aF167
aF352
aF242
aF196
aF328
aF134
aF354
aF45
aF295
aF323
aF88
aF354
aF221
aF81
aF309
aF318
aF170
aF125
aF42
aF120
aF90
aF88
aF138
aF320
aF17
aF244
aF225
aF339
aF78
aF272
aF149
aF203
aF24
aF135
aF28
aF209
aF323
aF68
aF63
aF104
aF296
aF83
aF243
aF97
aF268
aF70
aF88
aF89
aF163
aF137
aF291
aF324
aF355
aF116
aF294
aF176
aF226
aF101
aF255
aF212
aF172
aF256
aF109
aF326
aF166
aF10
aF96
aF167
aF85
aF261
aF113
aF201
aF260
aF169
aF18
aF157
aF103
aF51
aF144
aF138
aF190
aF171
aF292
aF129
aF5
aF83
aF197
aF121
aF327
aF165
aF123
aF244
aF228
aF148
aF123
aF59
aF299
aF62
aF283
aF191
aF140
aF121
aF53
aF316
aF29
aF149
aF36
aF283
aF120
aF198
aF222
aF98
aF175
aF216
aF23
aF268
aF318
aF196
aF268
aF265
aF159
aF119
aF65
aF155
aF119
aF193
aF4
aF204
aF244
aF188
aF147
aF222
aF179
aF94
aF203
aF58
aF313
aF258
aF170
aF354
aF218
aF115
aF88
aF347
aF254
aF323
aF149
aF14
aF169
aF221
aF6
aF9
aF5
aF254
aF127
aF98
aF182
aF282
aF317
aF138
aF228
aF226
aF226
aF267
aF221
aF142
aF286
aF351
aF326
aF347
aF224
aF14
aF11
aF188
aF14
aF181
aF309
aF127
aF75
aF197
aF88
aF171
aF138
aF99
aF230
aF190
aF317
aF318
aF120
aF127
aF95
aF204
aF284
aF246
aF318
aF65
aF356
aF336
aF3
aF244
aF237
aF306
aF174
aF25
aF269
aF209
aF76
aF129
aF226
aF127
aF138
aF109
aF258
aF66
aF17
aF313
aF226
aF28
aF244
aF19
aF58
aF151
aF33
aF66
aF334
aF179
aF97
aF202
aF104
aF36
aF272
aF67
aF191
aF331
aF105
aF108
aF96
aF158
aF256
aF78
aF183
aF225
aF80
aF337
aF72
aF70
aF285
aF208
aF83
aF268
aF285
aF41
aF89
aF58
aF345
aF252
aF224
aF283
aF203
aF188
aF270
aF286
aF240
aF211
aF63
aF255
aF47
aF209
aF225
aF254
aF188
aF309
aF345
aF183
aF78
aF241
aF295
aF140
aF328
aF7
aF190
aF253
aF145
aF104
aF353
aF279
aF282
aF244
aF337
aF104
aF226
aF44
aF162
aF190
aF306
aF135
aF75
aF22
aF295
aF217
aF345
aF177
aF186
aF345
aF341
aF53
aF22
aF238
aF83
aF256
aF63
aF158
aF245
aF51
aF100
aF140
aF350
aF44
aF214
aF9
aF14
aF45
aF190
aF82
aF80
aF23
aF66
aF15
aF25
aF303
aF323
aF168
aF330
aF290
aF245
aF270
aF292
aF202
aF49
aF105
aF36
aF256
aF147
aF301
aF53
aF273
aF311
aF46
aF291
aF114
aF15
aF19
aF36
aF213
aF127
aF345
aF116
aF286
aF158
aF35
aF210
aF139
aF95
aF145
aF16
aF219
aF270
aF88
aF102
aF157
aF256
aF319
aF334
aF29
aF161
aF236
aF240
aF334
aF269
aF14
aF301
aF138
aF256
aF334
aF23
aF254
aF204
aF352
aF29
aF319
aF36
aF236
aF141
aF7
aF56
aF195
aF147
aF297
aF210
aF318
aF174
aF188
aF13
aF256
aF295
aF349
aF328
aF49
aF67
aF285
aF169
aF151
aF19
aF353
aF36
aF116
aF334
aF49
aF155
aF345
aF227
aF5
aF204
aF147
aF134
aF331
aF114
aF5
aF139
aF123
aF284
aF2
aF339
aF119
aF244
aF78
aF191
aF72
aF269
aF245
aF118
aF265
aF62
aF286
aF98
aF318
aF192
aF45
aF89
aF266
aF330
aF339
aF53
aF341
aF306
aF152
aF236
aF352
aF93
aF123
aF353
aF104
aF36
aF190
aF350
aF356
aF160
aF138
aF329
aF273
aF140
aF341
aF14
aF323
aF269
aF36
aF85
aF120
aF115
aF254
aF137
aF273
aF203
aF312
aF326
aF302
aF310
aF66
aF186
aF158
aF142
aF288
aF62
aF186
aF244
aF310
aF160
aF58
aF87
aF290
aF40
aF236
aF176
aF210
aF301
aF2
aF169
aF250
aF92
aF281
aF12
aF284
aF302
aF194
aF158
aF127
aF224
aF180
aF140
aF36
aF258
aF98
aF318
aF303
aF273
aF317
aF119
aF301
aF228
aF347
aF88
aF36
aF168
aF282
aF5
aF334
aF222
aF257
aF95
aF314
aF80
aF192
aF153
aF93
aF205
aF167
aF86
aF13
aF352
aF183
aF169
aF108
aF197
aF318
aF204
aF173
aF204
aF198
aF337
aF293
aF154
aF47
aF327
aF228
aF324
aF182
aF134
aF356
aF27
aF98
aF62
aF313
aF244
aF145
aF301
aF142
aF286
aF303
aF58
aF295
aF258
aF133
aF190
aF290
aF198
aF140
aF62
aF306
aF11
aF348
aF212
aF265
aF19
aF272
aF303
aF97
aF309
aF15
aF353
aF324
aF244
aF19
aF36
aF302
aF345
aF299
aF22
aF36
aF303
aF25
aF131
aF107
aF155
aF65
aF347
aF190
aF234
aF354
aF343
aF318
aF167
aF156
aF89
aF188
aF52
aF252
aF302
aF193
aF287
aF308
aF285
aF14
aF215
aF13
aF88
aF71
aF165
aF181
aF89
aF140
aF270
aF235
aF293
aF144
aF62
aF153
aF53
aF244
aF237
aF95
aF249
aF350
aF354
aF74
aF121
aF29
aF19
aF216
aF58
aF3
aF222
aF245
aF41
aF292
aF158
aF29
aF326
aF340
aF117
aF240
aF175
aF294
aF292
aF115
aF228
aF238
aF78
aF170
aF255
aF180
aF278
aF122
aF223
aF88
aF194
aF120
aF251
aF83
aF310
aF14
aF23
aF175
aF23
aF195
aF139
aF295
aF55
aF169
aF252
aF347
aF214
aF273
aF149
aF256
aF173
aF66
aF212
aF265
aF147
aF142
aF67
aF123
aF283
aF350
aF15
aF115
aF292
aF128
aF288
aF115
aF228
aF136
aF161
aF241
aF334
aF43
aF332
aF240
aF254
aF159
aF190
aF60
aF290
aF203
aF94
aF147
aF319
aF100
aF316
aF174
aF147
aF67
aF15
aF315
aF340
aF88
aF318
aF282
aF295
aF2
aF119
aF351
aF54
aF221
aF329
aF279
aF319
aF161
aF248
aF160
aF126
aF316
aF190
aF142
aF158
aF6
aF214
aF116
aF204
aF197
aF147
aF107
aF0
aF318
aF191
aF344
aF155
aF134
aF110
aF250
aF147
aF325
aF88
aF222
aF118
aF39
aF23
aF299
aF131
aF296
aF131
aF77
aF89
aF165
aF152
aF146
aF267
aF123
aF197
aF187
aF87
aF110
aF151
aF216
aF244
aF131
aF195
aF104
aF147
aF290
aF294
aF302
aF37
aF2
aF105
aF26
aF228
aF179
aF39
aF14
aF148
aF176
aF103
aF256
aF305
aF159
aF153
aF54
aF200
aF48
aF292
aF189
aF236
aF340
aF6
aF326
aF302
aF120
aF118
aF179
aF283
aF339
aF153
aF38
aF353
aF138
aF108
aF296
aF319
aF212
aF15
aF286
aF104
aF227
aF324
aF311
aF88
aF95
aF170
aF270
aF242
aF4
aF239
aF31
aF244
aF353
aF8
aF201
aF235
aF226
aF118
aF210
aF224
aF283
aF87
aF195
aF334
aF203
aF140
aF321
aF180
aF37
aF78
aF26
aF9
aF197
aF339
aF212
aF354
aF84
aF179
aF255
aF355
aF281
aF32
aF190
aF100
aF343
aF303
aF235
aF284
aF225
aF312
aF342
aF187
aF316
aF288
aF214
aF318
aF95
aF2
aF7
aF29
aF209
aF329
aF78
aF103
aF147
aF79
aF127
aF255
aF58
aF4
aF144
aF249
aF234
aF221
aF211
aF265
aF58
aF62
aF170
aF66
aF88
aF293
aF342
aF266
aF80
aF265
aF240
aF151
aF155
aF281
aF121
aF65
aF211
aF328
aF144
aF208
aF292
aF77
aF29
aF42
aF198
aF51
aF169
aF267
aF167
aF188
aF66
aF80
aF315
aF228
aF109
aF235
aF137
aF146
aF156
aF129
aF244
aF256
aF36
aF348
aF318
aF127
aF202
aF240
aF159
aF244
aF186
aF229
aF26
aF53
aF6
aF8
aF353
aF151
aF326
aF222
aF275
aF342
aF168
aF2
aF144
aF175
aF281
aF190
aF58
aF286
aF284
aF160
aF123
aF58
aF162
aF69
aF350
aF284
aF82
aF140
aF241
aF257
aF46
aF245
aF347
aF120
aF230
aF283
aF230
aF101
aF23
aF292
aF116
aF218
aF67
aF319
aF87
aF66
aF268
aF137
aF196
aF243
aF49
aF311
aF196
aF254
aF17
aF323
aF296
aF292
aF186
aF265
aF75
aF167
aF120
aF340
aF244
aF268
aF151
aF88
aF95
aF240
aF221
aF19
aF255
aF299
aF177
aF107
aF296
aF73
aF171
aF204
aF29
aF70
aF287
aF299
aF39
aF11
aF260
aF113
aF97
aF104
aF188
aF19
aF107
aF312
aF339
aF350
aF343
aF66
aF8
aF44
aF296
aF344
aF49
aF244
aF54
aF251
aF240
aF131
aF27
aF188
aF172
aF139
aF2
aF223
aF222
aF269
aF237
aF125
aF157
aF303
aF192
aF212
aF309
aF206
aF101
aF301
aF105
aF319
aF268
aF138
aF120
aF62
aF39
aF245
aF341
aF138
aF244
aF314
aF273
aF325
aF19
aF272
aF163
aF235
aF276
aF83
aF347
aF27
aF210
aF95
aF338
aF270
aF345
aF12
aF240
aF86
aF190
aF330
aF47
aF300
aF338
aF197
aF45
aF42
aF245
aF213
aF188
aF298
aF172
aF290
aF291
aF119
aF58
aF193
aF222
aF338
aF244
aF179
aF224
aF196
aF159
aF65
aF88
aF356
aF32
aF218
aF83
aF255
aF40
aF211
aF214
aF270
aF292
aF175
aF117
aF95
aF285
aF182
aF339
aF107
aF79
aF151
aF234
aF142
aF237
aF219
aF243
aF311
aF260
aF182
aF247
aF310
aF62
aF353
aF286
aF269
aF167
aF282
aF76
aF313
aF49
aF36
aF83
aF160
aF186
aF116
aF183
aF186
aF303
aF338
aF238
aF14
aF339
aF15
aF335
aF120
aF7
aF190
aF58
aF42
aF334
aF220
aF294
aF29
aF341
aF193
aF67
aF140
aF75
aF318
aF323
aF319
aF244
aF257
aF326
aF328
aF193
aF9
aF355
aF76
aF151
aF219
aF145
aF318
aF243
aF304
aF52
aF126
aF172
aF245
aF182
aF309
aF4
aF303
aF39
aF55
aF142
aF214
aF123
aF351
aF250
aF88
aF228
aF31
aF250
aF78
aF149
aF8
aF159
aF118
aF78
aF23
aF228
aF174
aF165
aF58
aF114
aF253
aF304
aF267
aF229
aF102
aF7
aF275
aF120
aF211
aF158
aF151
aF260
aF127
aF292
aF196
aF27
aF118
aF119
aF323
aF353
aF11
aF119
aF288
aF102
aF131
aF228
aF144
aF66
aF210
aF300
aF186
aF123
aF36
aF293
aF242
aF238
aF316
aF114
aF240
aF204
aF75
aF101
aF81
aF115
aF245
aF119
aF253
aF26
aF145
aF59
aF120
aF240
aF276
aF74
aF151
aF295
aF357
aF58
aF311
aF279
aF80
aF353
aF5
aF302
aF121
aF74
aF120
aF284
aF225
aF338
aF222
aF222
aF184
aF340
aF268
aF348
aF218
aF10
aF275
aF306
aF339
aF302
aF357
aF66
aF208
aF72
aF279
aF233
aF318
aF154
aF257
aF348
aF303
aF234
aF319
aF42
aF354
aF25
aF145
aF144
aF108
aF186
aF112
aF326
aF271
aF228
aF170
aF357
aF40
aF283
aF252
aF94
aF63
aF70
aF308
aF159
aF139
aF148
aF35
aF79
aF245
aF170
aF298
aF323
aF267
aF209
aF118
aF144
aF220
aF299
aF350
aF293
aF52
aF17
aF207
aF43
aF291
aF160
aF42
aF96
aF176
aF23
aF186
aF59
aF89
aF103
aF295
aF319
aF44
aF82
aF238
aF77
aF88
aF320
aF312
aF303
aF257
aF71
aF117
aF271
aF140
aF269
aF270
aF318
aF238
aF81
aF140
aF101
aF212
aF281
aF327
aF98
aF225
aF32
aF345
aF295
aF323
aF29
aF188
aF256
aF286
aF342
aF109
aF146
aF240
aF311
aF238
aF238
aF36
aF225
aF67
aF313
aF17
aF126
aF256
aF179
aF238
aF202
aF140
aF103
aF228
aF270
aF301
aF256
aF58
aF267
aF212
aF271
aF70
aF67
aF45
aF212
aF346
aF309
aF357
aF100
aF320
aF240
aF338
aF326
aF139
aF295
aF197
aF299
aF345
aF327
aF158
aF211
aF4
aF6
aF145
aF342
aF203
aF218
aF324
aF9
aF318
aF318
aF265
aF115
aF90
aF292
aF117
aF114
aF265
aF238
aF147
aF39
aF121
aF293
aF119
aF147
aF49
aF196
aF35
aF100
aF190
aF134
aF222
aF311
aF212
aF88
aF307
aF74
aF265
aF352
aF317
aF306
aF80
aF40
aF219
aF83
aF2
aF303
aF293
aF313
aF58
aF268
aF58
aF258
aF218
aF299
aF80
aF138
aF289
aF88
aF176
aF19
aF170
aF170
aF6
aF98
aF105
aF126
aF105
aF7
aF251
aF31
aF79
aF58
aF19
aF40
aF215
aF8
aF210
aF353
aF88
aF281
aF296
aF115
aF88
aF317
aF240
aF172
aF167
aF285
aF312
aF355
aF25
aF339
aF83
aF228
aF80
aF238
aF198
aF226
aF67
aF222
aF159
aF271
aF240
aF131
aF159
aF131
aF104
aF220
aF12
aF357
aF103
aF225
aF295
aF41
aF52
aF179
aF265
aF139
aF62
aF129
aF112
aF323
aF342
aF140
aF160
aF292
aF216
aF310
aF14
aF156
aF58
aF238
aF330
aF11
aF293
aF196
aF267
aF334
aF267
aF122
aF265
aF113
aF140
aF105
aF49
aF337
aF42
aF246
aF144
aF328
aF23
aF15
aF204
aF206
aF354
aF154
aF187
aF91
aF52
aF79
aF194
aF269
aF356
aF193
aF311
aF155
aF201
aF83
aF241
aF251
aF78
aF165
aF243
aF285
aF245
aF318
aF99
aF147
aF309
aF309
aF244
aF116
aF350
aF190
aF146
aF36
aF176
aF98
aF154
aF88
aF198
aF236
aF313
aF262
aF131
aF6
aF31
aF207
aF327
aF98
aF208
aF318
aF240
aF50
aF310
aF89
aF119
aF264
aF303
aF22
aF191
aF138
aF345
aF146
aF188
aF62
aF285
aF323
aF140
aF331
aF270
aF348
aF14
aF190
aF271
aF354
aF222
aF203
aF127
aF17
aF225
aF349
aF149
aF93
aF99
aF236
aF339
aF318
aF159
aF62
aF256
aF101
aF286
aF339
aF191
aF29
aF223
aF341
aF169
aF251
aF36
aF144
aF134
aF348
aF31
aF214
aF309
aF318
aF65
aF353
aF334
aF296
aF126
aF46
aF139
aF340
aF294
aF8
aF103
aF275
aF250
aF128
aF283
aF239
aF302
aF255
aF78
aF311
aF179
aF280
aF158
aF328
aF76
aF171
aF146
aF145
aF228
aF330
aF356
aF34
aF339
aF340
aF36
aF215
aF127
aF212
aF349
aF121
aF35
aF227
aF88
aF103
aF319
aF48
aF212
aF139
aF225
aF86
aF34
aF288
aF29
aF319
aF259
aF268
aF319
aF88
aF149
aF315
aF131
aF7
aF104
aF174
aF141
aF264
aF95
aF252
aF5
aF23
aF127
aF197
aF65
aF19
aF7
aF72
aF302
aF127
aF29
aF341
aF160
aF204
aF280
aF256
aF74
aF251
aF319
aF295
aF101
aF183
aF262
aF77
aF342
aF140
aF83
aF226
aF42
aF150
aF15
aF198
aF118
aF15
aF227
aF101
aF265
aF196
aF193
aF242
aF285
aF252
aF136
aF100
aF249
aF21
aF198
aF214
aF35
aF325
aF175
aF289
aF272
aF193
aF159
aF281
aF226
aF298
aF291
aF102
aF319
aF308
aF268
aF302
aF228
aF260
aF198
aF112
aF174
aF116
aF176
aF119
aF282
aF210
aF283
aF277
aF40
aF357
aF56
aF294
aF295
aF254
aF291
aF249
aF281
aF197
aF157
aF173
aF145
aF223
aF301
aF1
aF347
aF127
aF226
aF83
aF36
aF188
aF186
aF104
aF245
aF122
aF83
aF244
aF80
aF296
aF278
aF184
aF227
aF74
aF238
aF153
aF162
aF357
aF78
aF116
aF176
aF184
aF58
aF147
aF44
aF270
aF157
aF89
aF293
aF131
aF122
aF172
aF284
aF249
aF279
aF66
aF6
aF315
aF294
aF245
aF339
aF105
aF287
aF111
aF141
aF17
aF296
aF258
aF32
aF344
aF138
aF285
aF268
aF245
aF243
aF295
aF149
aF93
aF318
aF66
aF311
aF175
aF152
aF204
aF105
aF204
aF348
aF109
aF191
aF295
aF264
aF301
aF236
aF203
aF63
aF138
aF293
aF129
aF112
aF255
aF74
aF255
aF52
aF212
aF147
aF267
aF318
aF326
aF121
aF204
aF245
aF34
aF175
aF65
aF228
aF23
aF242
aF238
aF245
aF139
aF184
aF5
aF265
aF270
aF145
aF221
aF88
aF149
aF259
aF250
aF292
aF176
aF306
aF58
aF100
aF78
aF141
aF104
aF131
aF242
aF36
aF72
aF211
aF144
aF256
aF172
aF6
aF249
aF176
aF244
aF87
aF23
aF36
aF95
aF141
aF29
aF293
aF23
aF51
aF52
aF226
aF58
aF270
aF183
aF80
aF185
aF326
aF298
aF265
aF214
aF342
aF120
aF36
aF63
aF36
aF247
aF357
aF2
aF242
aF339
aF19
aF256
aF62
aF221
aF36
aF327
aF279
aF147
aF305
aF123
aF292
aF296
aF32
aF249
aF222
aF120
aF238
aF193
aF319
aF302
aF354
aF240
aF50
aF2
aF52
aF49
aF74
aF305
aF238
aF212
aF327
aF332
aF131
aF2
aF301
aF14
aF355
aF301
aF293
aF250
aF69
aF121
aF225
aF280
aF80
aF351
aF84
aF8
aF196
aF108
aF174
aF52
aF102
aF244
aF211
aF81
aF88
aF257
aF304
aF328
aF316
aF117
aF329
aF104
aF88
aF190
aF81
aF171
aF304
aF145
aF119
aF138
aF258
aF350
aF36
aF309
aF119
aF265
aF7
aF88
aF297
aF81
aF242
aF53
aF202
aF292
aF59
aF190
aF46
aF119
aF202
aF137
aF350
aF12
aF204
aF12
aF141
aF283
aF46
aF259
aF123
aF238
aF36
aF118
aF342
aF145
aF12
aF6
aF99
aF238
aF325
aF202
aF62
aF50
aF340
aF95
aF157
aF65
aF116
aF233
aF239
aF292
aF305
aF320
aF71
aF244
aF98
aF7
aF245
aF344
aF259
aF147
aF66
aF112
aF292
aF114
aF188
aF42
aF63
aF120
aF99
aF6
aF33
aF29
aF67
aF312
aF302
aF299
aF277
aF90
aF23
aF274
aF88
aF240
aF25
aF346
aF203
aF12
aF275
aF51
aF6
aF127
aF339
aF49
aF330
aF198
aF15
aF325
aF182
aF238
aF296
aF197
aF339
aF145
aF40
aF41
aF188
aF276
aF22
aF65
aF7
aF292
aF10
aF94
aF87
aF95
aF102
aF7
aF104
aF190
aF36
aF56
aF306
aF174
aF18
aF228
aF49
aF67
aF88
aF143
aF170
aF295
aF4
aF118
aF319
aF260
aF225
aF265
aF141
aF147
aF240
aF33
aF265
aF151
aF49
aF25
aF35
aF288
aF93
aF228
aF157
aF40
aF183
aF140
aF299
aF138
aF188
aF244
aF127
aF322
aF198
aF275
aF120
aF36
aF72
aF36
aF258
aF83
aF190
aF238
aF11
aF268
aF235
aF343
aF26
aF67
aF212
aF36
aF280
aF147
aF9
aF261
aF39
aF140
aF74
aF57
aF117
aF285
aF145
aF286
aF141
aF190
aF218
aF108
aF24
aF303
aF302
aF202
aF15
aF146
aF342
aF215
aF301
aF295
aF286
aF303
aF303
aF111
aF21
aF265
aF267
aF50
aF95
aF257
aF180
aF83
aF141
aF302
aF255
aF330
aF78
aF108
aF318
aF318
aF63
aF62
aF17
aF198
aF214
aF67
aF38
aF224
aF59
aF120
aF246
aF0
aF352
aF299
aF93
aF318
aF181
aF57
aF32
aF71
aF170
aF208
aF136
aF36
aF36
aF103
aF299
aF171
aF106
aF13
aF295
aF191
aF327
aF89
aF227
aF138
aF30
aF349
aF88
aF285
aF56
aF80
aF70
aF189
aF319
aF249
aF49
aF58
aF55
aF147
aF63
aF119
aF240
aF147
aF244
aF39
aF167
aF189
aF319
aF144
aF4
aF127
aF249
aF200
aF283
aF71
aF237
aF191
aF120
aF228
aF215
aF222
aF242
aF203
aF62
aF158
aF131
aF252
aF100
aF341
aF212
aF214
aF141
aF188
aF138
aF98
aF200
aF153
aF45
aF206
aF114
aF265
aF116
aF144
aF68
aF212
aF20
aF81
aF96
aF151
aF242
aF355
aF306
aF330
aF147
aF226
aF39
aF311
aF286
aF172
aF182
aF296
aF31
aF50
aF171
aF281
aF127
aF222
aF191
aF44
aF99
aF72
aF33
aF4
aF119
aF211
aF249
aF260
aF224
aF74
aF121
aF344
aF160
aF58
aF136
aF189
aF123
aF290
aF292
aF146
aF7
aF292
aF176
aF253
aF319
aF238
aF296
aF214
aF249
aF226
aF144
aF330
aF105
aF243
aF140
aF212
aF98
aF31
aF312
aF95
aF249
aF290
aF19
aF15
aF240
aF322
aF266
aF289
aF51
aF157
aF172
aF124
aF59
aF274
aF76
aF151
aF285
aF210
aF296
aF289
aF71
aF284
aF323
aF112
aF188
aF313
aF27
aF310
aF141
aF22
aF115
aF172
aF229
aF142
aF237
aF193
aF82
aF238
aF136
aF350
aF329
aF58
aF180
aF271
aF67
aF283
aF71
aF286
aF291
aF171
aF128
aF215
aF16
aF72
aF334
aF238
aF36
aF179
aF40
aF80
aF155
aF312
aF232
aF62
aF268
aF103
aF145
aF247
aF73
aF312
aF337
aF33
aF126
aF203
aF7
aF190
aF7
aF144
aF57
aF294
aF129
aF221
aF244
aF204
aF75
aF167
aF344
aF176
aF177
aF203
aF107
aF165
aF23
aF327
aF201
aF267
aF6
aF158
aF173
aF256
aF305
aF83
aF272
aF107
aF151
aF78
aF198
aF270
aF153
aF22
aF327
aF87
aF203
aF47
aF281
aF283
aF182
aF194
aF355
aF249
aF200
aF134
aF138
aF62
aF40
aF209
aF171
aF225
aF49
aF244
aF188
aF134
aF66
aF177
aF149
aF14
aF210
aF149
aF269
aF83
aF337
aF238
aF267
aF197
aF120
aF309
aF53
aF138
aF109
aF179
aF244
aF327
aF348
aF229
aF264
aF14
aF77
aF350
aF65
aF88
aF52
aF209
aF9
aF258
aF349
aF187
aF141
aF117
aF240
aF337
aF214
aF176
aF272
aF144
aF258
aF129
aF94
aF222
aF138
aF323
aF27
aF219
aF147
aF336
aF207
aF293
aF62
aF302
aF174
aF268
aF292
aF295
aF102
aF167
aF141
aF147
aF58
aF134
aF248
aF238
aF138
aF6
aF77
aF128
aF205
aF98
aF194
aF139
aF116
aF304
aF147
aF97
aF120
aF261
aF88
aF118
aF36
aF295
aF176
aF15
aF174
aF241
aF356
aF342
aF119
aF199
aF211
aF4
aF191
aF88
aF236
aF250
aF84
aF289
aF183
aF182
aF84
aF93
aF299
aF167
aF340
aF257
aF350
aF175
aF67
aF285
aF297
aF196
aF270
aF204
aF202
aF66
aF293
aF349
aF353
aF342
aF270
aF299
aF112
aF83
aF52
aF39
aF97
aF357
aF62
aF251
aF58
aF91
aF120
aF196
aF320
aF204
aF145
aF239
aF260
aF78
aF208
aF8
aF31
aF281
aF147
aF11
aF62
aF320
aF83
aF111
aF202
aF212
aF170
aF238
aF82
aF221
aF195
aF190
aF1
aF88
aF157
aF162
aF212
aF154
aF169
aF23
aF184
aF284
aF169
aF176
aF139
aF15
aF48
aF111
aF193
aF352
aF162
aF306
aF285
aF204
aF294
aF21
aF225
aF243
aF279
aF80
aF318
aF319
aF134
aF344
aF309
aF128
aF182
aF281
aF69
aF145
aF139
aF139
aF293
aF240
aF67
aF238
aF296
aF241
aF240
aF86
aF240
aF107
aF188
aF131
aF167
aF192
aF290
aF20
aF2
aF227
aF347
aF118
aF311
aF151
aF123
aF225
aF158
aF21
aF185
aF198
aF60
aF167
aF201
aF310
aF149
aF238
aF183
aF42
aF120
aF195
aF83
aF320
aF299
aF172
aF278
aF118
aF140
aF66
aF309
aF270
aF174
aF262
aF14
aF186
aF85
aF334
aF62
aF73
aF87
aF83
aF97
aF302
aF283
aF256
aF38
aF335
aF104
aF346
aF271
aF249
aF280
aF283
aF71
aF170
aF89
aF140
aF345
aF113
aF81
aF203
aF194
aF183
aF24
aF244
aF88
aF240
aF288
aF31
aF66
aF283
aF26
aF98
aF348
aF252
aF226
aF285
aF111
aF120
aF265
aF270
aF285
aF271
aF282
aF52
aF191
aF226
aF348
aF290
aF137
aF319
aF266
aF142
aF63
aF314
aF9
aF311
aF70
aF243
aF58
aF98
aF149
aF203
aF330
aF134
aF284
aF327
aF95
aF354
aF265
aF357
aF318
aF175
aF182
aF47
aF110
aF340
aF305
aF32
aF69
aF147
aF225
aF279
aF272
aF20
aF131
aF188
aF278
aF32
aF72
aF267
aF92
aF192
aF298
aF299
aF145
aF284
aF230
aF309
aF25
aF123
aF327
aF19
aF40
aF339
aF194
aF147
aF309
aF219
aF221
aF198
aF261
aF97
aF189
aF276
aF159
aF138
aF310
aF259
aF117
aF318
aF94
aF95
aF87
aF238
aF104
aF89
aF147
aF14
aF102
aF157
aF330
aF311
aF142
aF178
aF216
aF305
aF84
aF252
aF31
aF138
aF208
aF193
aF83
aF251
aF349
aF286
aF194
aF228
aF264
aF102
aF138
aF35
aF256
aF77
aF350
aF122
aF93
aF337
aF158
aF71
aF332
aF212
aF117
aF76
aF286
aF145
aF42
aF46
aF29
aF51
aF7
aF58
aF200
aF179
aF295
aF296
aF101
aF301
aF140
aF97
aF341
aF122
aF226
aF120
aF349
aF299
aF345
aF98
aF346
aF283
aF330
aF317
aF84
aF16
aF219
aF58
aF1
aF150
aF354
aF179
aF192
aF147
aF155
aF272
aF228
aF133
aF119
aF240
aF204
aF217
aF33
aF285
aF269
aF346
aF267
aF157
aF322
aF353
aF44
aF296
aF157
aF294
aF149
aF7
aF160
aF89
aF353
aF103
aF179
aF47
aF301
aF62
aF209
aF230
aF142
aF46
aF97
aF284
aF81
aF156
aF54
aF97
aF323
aF65
aF319
aF272
aF13
aF119
aF244
aF236
aF238
aF128
aF98
aF258
aF310
aF8
aF221
aF94
aF294
aF81
aF238
aF2
aF271
aF194
aF150
aF8
aF80
aF337
aF226
aF116
aF191
aF167
aF38
aF270
aF221
aF14
aF193
aF295
aF343
aF211
aF275
aF223
aF153
aF353
aF129
aF212
aF221
aF270
aF279
aF310
aF191
aF140
aF67
aF176
aF54
aF118
aF58
aF168
aF268
aF289
aF291
aF265
aF25
aF97
aF158
aF52
aF55
aF27
aF350
aF340
aF284
aF147
aF280
aF43
aF209
aF120
aF268
aF217
aF322
aF116
aF183
aF48
aF174
aF302
aF352
aF265
aF181
aF299
aF210
aF13
aF354
aF336
aF302
aF310
aF167
aF183
aF267
aF157
aF159
aF337
aF283
aF33
aF77
aF226
aF59
aF240
aF283
aF165
aF174
aF2
aF334
aF339
aF43
aF200
aF345
aF217
aF272
aF89
aF345
aF340
aF303
aF282
aF123
aF81
aI6120
I6821
tp3
a((lp4
F50
aF326
aF161
aF100
aF140
aF165
aF258
aF24
aF286
aF293
aF1
aF83
aF242
aF3
aF59
aF3
aF317
aF123
aF248
aF157
aF205
aF226
aF203
aF28
aF217
aF345
aF188
aF220
aF52
aF119
aF158
aF85
aF282
aF225
aF82
aF60
aF353
aF128
aF288
aF110
aF152
aF158
aF11
aF317
aF344
aF148
aF233
aF342
aF55
aF70
aF150
aF68
aF326
aF347
aF224
aF186
aF117
aF233
aF111
aF67
aF46
aF120
aF42
aF146
aF317
aF101
aF6
aF265
aF46
aF315
aF11
aF318
aF29
aF211
aF348
aF16
aF87
aF260
aF107
aF267
aF130
aF209
aF99
aF19
aF331
aF143
aF137
aF76
aF120
aF28
aF218
aF190
aF179
aF355
aF287
aF234
aF185
aF313
aF82
aF329
aF234
aF206
aF265
aF43
aF303
aF315
aF88
aF263
aF77
aF29
aF65
aF62
aF211
aF277
aF247
aF69
aF345
aF128
aF55
aF317
aF319
aF154
aF45
aF80
aF338
aF242
aF56
aF319
aF32
aF299
aF87
aF104
aF265
aF254
aF174
aF168
aF24
aF225
aF335
aF306
aF277
aF199
aF83
aF324
aF242
aF83
aF80
aF158
aF135
aF118
aF206
aF133
aF53
aF79
aF24
aF12
aF42
aF298
aF325
aF309
aF215
aF187
aF343
aF150
aF260
aF310
aF77
aF239
aF194
aF231
aF282
aF17
aF220
aF55
aF97
aF311
aF13
aF187
aF154
aF83
aF108
aF157
aF316
aF219
aF174
aF110
aF214
aF94
aF146
aF55
aF122
aF355
aF354
aF305
aF343
aF81
aF50
aF82
aF127
aF159
aF122
aF312
aF343
aF128
aF206
aF150
aF203
aF136
aF9
aF9
aF85
aF166
aF51
aF346
aF285
aF35
aF209
aF160
aF340
aF237
aF228
aF43
aF179
aF218
aF326
aF29
aF65
aF194
aF134
aF152
aF190
aF300
aF40
aF132
aF347
aF3
aF81
aF143
aF307
aF342
aF225
aF343
aF194
aF326
aF125
aF352
aF176
aF236
aF127
aF83
aF52
aF6
aF281
aF134
aF29
aF40
aF242
aF305
aF178
aF193
aF234
aF149
aF79
aF93
aF168
aF335
aF91
aF169
aF103
aF78
aF155
aF242
aF18
aF19
aF333
aF3
aF99
aF311
aF247
aF320
aF152
aF183
aF316
aF141
aF352
aF24
aF137
aF179
aF47
aF41
aF105
aF1
aF164
aF154
aF291
aF168
aF263
aF139
aF213
aF40
aF347
aF72
aF236
aF215
aF218
aF226
aF233
aF291
aF274
aF343
aF130
aF159
aF277
aF132
aF237
aF16
aF347
aF312
aF72
aF223
aF264
aF193
aF242
aF353
aF170
aF108
aF308
aF130
aF136
aF175
aF148
aF62
aF353
aF339
aF150
aF343
aF317
aF63
aF142
aF247
aF332
aF312
aF355
aF146
aF245
aF208
aF272
aF214
aF139
aF102
aF47
aF241
aF297
aF310
aF125
aF42
aF167
aF152
aF178
aF263
aF322
aF319
aF318
aF15
aF148
aF274
aF264
aF4
aF148
aF109
aF63
aF281
aF343
aF199
aF81
aF297
aF352
aF353
aF311
aF257
aF174
aF115
aF300
aF201
aF234
aF331
aF56
aF113
aF168
aF79
aF81
aF232
aF343
aF56
aF290
aF24
aF152
aF229
aF343
aF234
aF44
aF193
aF102
aF115
aF343
aF107
aF169
aF197
aF266
aF147
aF304
aF189
aF289
aF156
aF29
aF67
aF99
aF20
aF244
aF44
aF247
aF175
aF79
aF233
aF65
aF354
aF183
aF88
aF221
aF244
aF78
aF50
aF313
aF305
aF172
aF187
aF289
aF272
aF43
aF40
aF353
aF170
aF283
aF193
aF116
aF215
aF65
aF61
aF130
aF81
aF203
aF10
aF149
aF305
aF225
aF165
aF81
aF215
aF28
aF347
aF263
aF343
aF264
aF135
aF24
aF325
aF3
aF198
aF14
aF313
aF148
aF78
aF131
aF62
aF136
aF174
aF133
aF179
aF197
aF288
aF24
aF108
aF168
aF197
aF343
aF140
aF236
aF349
aF93
aF117
aF44
aF355
aF271
aF271
aF28
aF310
aF219
aF45
aF147
aF123
aF94
aF100
aF187
aF24
aF3
aF181
aF205
aF217
aF332
aF225
aF49
aF329
aF348
aF78
aF155
aF241
aF147
aF357
aF159
aF107
aF59
aF130
aF310
aF91
aF233
aF4
aF24
aF277
aF343
aF76
aF111
aF83
aF44
aF329
aF179
aF72
aF174
aF111
aF86
aF155
aF94
aF252
aF153
aF337
aF62
aF2
aF68
aF124
aF137
aF312
aF310
aF141
aF318
aF94
aF43
aF43
aF273
aF222
aF357
aF162
aF34
aF46
aF317
aF143
aF110
aF87
aF6
aF158
aF168
aF164
aF12
aF213
aF168
aF17
aF141
aF76
aF175
aF94
aF166
aF15
aF207
aF233
aF217
aF256
aF117
aF308
aF289
aF247
aF227
aF42
aF81
aF107
aF217
aF138
aF135
aF308
aF296
aF313
aF150
aF13
aF180
aF193
aF24
aF18
aF3
aF24
aF171
aF280
aF300
aF11
aF265
aF348
aF3
aF63
aF156
aF118
aF73
aF184
aF263
aF260
aF343
aF50
aF314
aF239
aF16
aF326
aF214
aF127
aF340
aF115
aF16
aF317
aF0
aF17
aF324
aF11
aF255
aF217
aF110
aF28
aF8
aF37
aF203
aF107
aF256
aF317
aF188
aF131
aF260
aF162
aF186
aF258
aF286
aF120
aF83
aF315
aF79
aF83
aF288
aF242
aF190
aF268
aF156
aF333
aF223
aF117
aF210
aF117
aF118
aF321
aF302
aF169
aF140
aF104
aF55
aF327
aF167
aF62
aF203
aF158
aF251
aF193
aF83
aF103
aF313
aF343
aF29
aF242
aF56
aF87
aF29
aF325
aF66
aF280
aF25
aF7
aF107
aF80
aF42
aF93
aF185
aF93
aF107
aF219
aF100
aF256
aF160
aF120
aF90
aF11
aF162
aF313
aF130
aF208
aF162
aF115
aF315
aF56
aF323
aF325
aF122
aF97
aF76
aF233
aF101
aF293
aF140
aF35
aF94
aF135
aF345
aF24
aF357
aF5
aF154
aF187
aF41
aF227
aF43
aF81
aF120
aF305
aF343
aF136
aF49
aF81
aF343
aF154
aF117
aF184
aF103
aF162
aF45
aF65
aF193
aF329
aF343
aF326
aF266
aF99
aF5
aF308
aF266
aF148
aF268
aF275
aF187
aF95
aF203
aF318
aF93
aF263
aF9
aF135
aF313
aF158
aF91
aF112
aF272
aF183
aF197
aF158
aF22
aF46
aF206
aF99
aF92
aF355
aF332
aF263
aF107
aF95
aF152
aF50
aF355
aF263
aF343
aF96
aF31
aF345
aF325
aF219
aF218
aF247
aF201
aF350
aF33
aF148
aF198
aF182
aF150
aF125
aF173
aF170
aF70
aF339
aF218
aF24
aF70
aF353
aF132
aF157
aF137
aF277
aF245
aF5
aF288
aF347
aF273
aF313
aF112
aF317
aF56
aF146
aF311
aF354
aF70
aF149
aF317
aF312
aF297
aF257
aF231
aF207
aF304
aF313
aF181
aF312
aF318
aF15
aF203
aF291
aF130
aF183
aF112
aF85
aF346
aF139
aF100
aF1
aF254
aF101
aF353
aF338
aF159
aF173
aF232
aF62
aF290
aF17
aF218
aF88
aF205
aF331
aF215
aF107
aF241
aF120
aF185
aF273
aF317
aF153
aF260
aF146
aF203
aF269
aF154
aF343
aF88
aF61
aF115
aF44
aF211
aF159
aF88
aF11
aF67
aF242
aF313
aF69
aF235
aF53
aF333
aF327
aF209
aF241
aF228
aF232
aF159
aF219
aF320
aF2
aF113
aF308
aF29
aF29
aF131
aF91
aF3
aF86
aF184
aF235
aF214
aF265
aF209
aF185
aF101
aF29
aF44
aF242
aF111
aF134
aF183
aF261
aF256
aF308
aF120
aF8
aF307
aF338
aF265
aF43
aF129
aF298
aF219
aF181
aF269
aF343
aF107
aF280
aF208
aF13
aF131
aF164
aF313
aF205
aF117
aF61
aF274
aF88
aF221
aF203
aF56
aF88
aF313
aF312
aF79
aF234
aF142
aF350
aF175
aF107
aF45
aF182
aF239
aF63
aF346
aF277
aF88
aF132
aF346
aF35
aF69
aF228
aF125
aF34
aF72
aF317
aF233
aF81
aF162
aF3
aF8
aF132
aF155
aF15
aF305
aF109
aF316
aF140
aF36
aF202
aF310
aF355
aF165
aF6
aF11
aF313
aF338
aF23
aF24
aF110
aF173
aF297
aF218
aF132
aF269
aF119
aF53
aF12
aF345
aF143
aF217
aF340
aF326
aF39
aF305
aF173
aF50
aF36
aF269
aF218
aF84
aF251
aF33
aF103
aF313
aF118
aF93
aF326
aF108
aF248
aF352
aF185
aF203
aF305
aF14
aF41
aF139
aF216
aF231
aF203
aF46
aF278
aF289
aF155
aF263
aF228
aF40
aF37
aF235
aF190
aF56
aF101
aF224
aF68
aF137
aF333
aF160
aF33
aF260
aF218
aF125
aF82
aF290
aF300
aF88
aF234
aF247
aF168
aF342
aF146
aF317
aF320
aF335
aF318
aF244
aF218
aF135
aF274
aF251
aF271
aF100
aF49
aF224
aF349
aF245
aF277
aF158
aF68
aF242
aF342
aF125
aF317
aF32
aF17
aF49
aF11
aF265
aF218
aF332
aF93
aF181
aF9
aF43
aF347
aF287
aF185
aF134
aF188
aF45
aF263
aF275
aF55
aF120
aF3
aF78
aF165
aF332
aF123
aF211
aF326
aF135
aF112
aF11
aF282
aF158
aF154
aF49
aF179
aF324
aF342
aF352
aF334
aF228
aF45
aF193
aF300
aF35
aF83
aF307
aF340
aF126
aF297
aF117
aF119
aF45
aF315
aF127
aF33
aF248
aF148
aF206
aF197
aF224
aF277
aF24
aF220
aF311
aF287
aF340
aF216
aF140
aF343
aF269
aF166
aF175
aF317
aF159
aF99
aF240
aF343
aF236
aF223
aF136
aF215
aF84
aF342
aF307
aF81
aF235
aF128
aF343
aF285
aF310
aF218
aF241
aF139
aF203
aF112
aF29
aF352
aF157
aF92
aF20
aF219
aF343
aF168
aF313
aF43
aF56
aF45
aF80
aF250
aF188
aF143
aF254
aF291
aF159
aF170
aF146
aF250
aF94
aF136
aF62
aF219
aF41
aF9
aF347
aF357
aF343
aF20
aF170
aF273
aF23
aF198
aF119
aF12
aF228
aF233
aF83
aF212
aF138
aF246
aF70
aF179
aF119
aF24
aF233
aF256
aF88
aF293
aF250
aF149
aF325
aF79
aF36
aF15
aF235
aF272
aF94
aF220
aF111
aF249
aF68
aF317
aF310
aF18
aF173
aF158
aF114
aF17
aF291
aF170
aF288
aF276
aF47
aF271
aF81
aF55
aF162
aF311
aF233
aF138
aF187
aF266
aF209
aF202
aF325
aF178
aF223
aF37
aF9
aF216
aF170
aF347
aF189
aF140
aF301
aF103
aF94
aF29
aF16
aF343
aF3
aF55
aF203
aF342
aF345
aF153
aF148
aF45
aF269
aF315
aF7
aF44
aF168
aF333
aF305
aF206
aF353
aF343
aF264
aF313
aF216
aF164
aF207
aF132
aF225
aF305
aF5
aF46
aF345
aF136
aF202
aF236
aF314
aF160
aF286
aF326
aF258
aF313
aF337
aF146
aF83
aF68
aF46
aF93
aF162
aF102
aF353
aF42
aF338
aF125
aF127
aF317
aF22
aF343
aF140
aF179
aF132
aF47
aF233
aF23
aF209
aF193
aF187
aF112
aF45
aF3
aF134
aF326
aF134
aF235
aF113
aF245
aF110
aF233
aF183
aF216
aF3
aF215
aF305
aF300
aF355
aF120
aF43
aF143
aF125
aF185
aF207
aF347
aF318
aF248
aF103
aF2
aF193
aF343
aF107
aF162
aF77
aF60
aF19
aF260
aF268
aF107
aF300
aF133
aF216
aF217
aF131
aF326
aF329
aF197
aF308
aF168
aF314
aF148
aF65
aF285
aF118
aF231
aF338
aF242
aF41
aF170
aF345
aF143
aF328
aF83
aF282
aF297
aF264
aF82
aF154
aF206
aF332
aF115
aF354
aF17
aF107
aF65
aF343
aF61
aF214
aF189
aF63
aF120
aF221
aF17
aF43
aF203
aF239
aF238
aF218
aF279
aF260
aF353
aF43
aF263
aF150
aF166
aF321
aF203
aF337
aF36
aF297
aF216
aF159
aF302
aF65
aF282
aF118
aF162
aF300
aF143
aF293
aF209
aF0
aF242
aF142
aF186
aF81
aF346
aF340
aF209
aF100
aF120
aF307
aF232
aF343
aF56
aF134
aF277
aF274
aF302
aF211
aF42
aF117
aF140
aF193
aF247
aF14
aF160
aF323
aF216
aF287
aF314
aF291
aF108
aF206
aF179
aF204
aF128
aF95
aF232
aF287
aF189
aF292
aF132
aF268
aF282
aF18
aF197
aF120
aF357
aF217
aF343
aF193
aF317
aF107
aF236
aF175
aF250
aF59
aF185
aF156
aF353
aF115
aF62
aF331
aF198
aF45
aF310
aF235
aF269
aF3
aF56
aF343
aF24
aF199
aF225
aF338
aF281
aF123
aF103
aF156
aF291
aF61
aF216
aF135
aF192
aF244
aF330
aF42
aF236
aF335
aF342
aF215
aF80
aF261
aF221
aF134
aF310
aF247
aF241
aF29
aF97
aF37
aF339
aF213
aF193
aF317
aF267
aF288
aF61
aF336
aF56
aF182
aF56
aF203
aF281
aF343
aF305
aF343
aF79
aF76
aF283
aF79
aF202
aF326
aF245
aF313
aF315
aF29
aF247
aF178
aF343
aF265
aF319
aF61
aF199
aF146
aF97
aF71
aF215
aF43
aF50
aF238
aF155
aF225
aF168
aF332
aF221
aF227
aF189
aF11
aF169
aF249
aF255
aF213
aF134
aF169
aF160
aF308
aF71
aF40
aF327
aF46
aF277
aF304
aF324
aF72
aF160
aF330
aF307
aF203
aF342
aF197
aF280
aF6
aF157
aF36
aF307
aF82
aF61
aF29
aF276
aF37
aF247
aF297
aF113
aF307
aF69
aF336
aF120
aF60
aF217
aF353
aF194
aF15
aF17
aF188
aF138
aF116
aF348
aF123
aF25
aF240
aF146
aF262
aF131
aF342
aF29
aF281
aF101
aF281
aF32
aF273
aF307
aF275
aF73
aF66
aF93
aF260
aF347
aF332
aF313
aF317
aF208
aF160
aF172
aF136
aF247
aF277
aF42
aF13
aF73
aF34
aF84
aF216
aF166
aF166
aF108
aF223
aF247
aF49
aF278
aF344
aF155
aF313
aF334
aF2
aF311
aF167
aF233
aF99
aF300
aF45
aF272
aF84
aF154
aF95
aF70
aF153
aF3
aF202
aF111
aF155
aF10
aF272
aF188
aF88
aF143
aF357
aF221
aF307
aF340
aF343
aF248
aF78
aF60
aF266
aF136
aF264
aF219
aF332
aF87
aF71
aF67
aF296
aF271
aF146
aF86
aF24
aF171
aF83
aF339
aF203
aF260
aF81
aF164
aF225
aF92
aF35
aF12
aF281
aF68
aF343
aF353
aF88
aF183
aF262
aF258
aF203
aF280
aF73
aF202
aF102
aF185
aF104
aF312
aF281
aF6
aF201
aF329
aF70
aF214
aF114
aF183
aF216
aF6
aF24
aF343
aF93
aF105
aF249
aF162
aF189
aF114
aF150
aF206
aF242
aF236
aF175
aF258
aF136
aF183
aF188
aF91
aF3
aF11
aF113
aF55
aF334
aF146
aF313
aF130
aF326
aF271
aF68
aF97
aF99
aF179
aF120
aF146
aF213
aF168
aF126
aF210
aF219
aF290
aF353
aF343
aF310
aF286
aF247
aF100
aF287
aF206
aF285
aF242
aF269
aF185
aF43
aF311
aF244
aF61
aF278
aF107
aF237
aF257
aF347
aF300
aF62
aF215
aF234
aF94
aF150
aF72
aF67
aF72
aF301
aF192
aF311
aF56
aF24
aF203
aF72
aF120
aF44
aF173
aF337
aF187
aF62
aF175
aF306
aF135
aF356
aF242
aF100
aF269
aF300
aF189
aF352
aF165
aF138
aF283
aF227
aF277
aF250
aF92
aF159
aF46
aF54
aF268
aF321
aF316
aF97
aF16
aF342
aF316
aF236
aF264
aF320
aF56
aF313
aF356
aF166
aF65
aF55
aF44
aF43
aF128
aF183
aF233
aF325
aF25
aF214
aF124
aF253
aF332
aF338
aF113
aF46
aF308
aF242
aF20
aF225
aF50
aF291
aF34
aF353
aF16
aF296
aF134
aF13
aF205
aF91
aF193
aF263
aF11
aF185
aF238
aF237
aF235
aF198
aF10
aF295
aF143
aF101
aF215
aF221
aF107
aF135
aF203
aF282
aF101
aF253
aF23
aF337
aF198
aF81
aF345
aF238
aF239
aF93
aF343
aF250
aF256
aF119
aF254
aF11
aF150
aF34
aF22
aF260
aF233
aF6
aF191
aF227
aF50
aF333
aF261
aF318
aF279
aF206
aF299
aF271
aF222
aF229
aF45
aF334
aF31
aF206
aF188
aF116
aF230
aF332
aF107
aF324
aF275
aF65
aF175
aF286
aF265
aF120
aF111
aF339
aF149
aF8
aF307
aF150
aF247
aF46
aF54
aF275
aF100
aF287
aF349
aF33
aF288
aF271
aF185
aF88
aF203
aF264
aF29
aF308
aF216
aF135
aF313
aF84
aF164
aF175
aF247
aF150
aF313
aF200
aF81
aF35
aF3
aF284
aF220
aF55
aF338
aF221
aF216
aF103
aF162
aF227
aF55
aF20
aF333
aF297
aF305
aF236
aF24
aF287
aF338
aF101
aF308
aF247
aF113
aF80
aF2
aF43
aF158
aF308
aF344
aF356
aF249
aF216
aF260
aF281
aF242
aF191
aF311
aF71
aF296
aF91
aF233
aF47
aF155
aF66
aF141
aF246
aF50
aF165
aF44
aF284
aF87
aF112
aF325
aF325
aF348
aF87
aF236
aF354
aF198
aF343
aF117
aF56
aF203
aF211
aF288
aF343
aF181
aF39
aF219
aF177
aF248
aF83
aF203
aF146
aF67
aF78
aF187
aF315
aF147
aF156
aF53
aF187
aF134
aF216
aF223
aF62
aF156
aF1
aF29
aF289
aF247
aF100
aF282
aF70
aF296
aF4
aF222
aF306
aF300
aF324
aF178
aF357
aF184
aF32
aF87
aF293
aF88
aF348
aF219
aF23
aF198
aF347
aF70
aF353
aF317
aF300
aF46
aF247
aF241
aF356
aF328
aF261
aF3
aF155
aF31
aF312
aF326
aF134
aF347
aF53
aF61
aF324
aF278
aF216
aF289
aF300
aF229
aF3
aF102
aF236
aF209
aF326
aF96
aF119
aF152
aF231
aF285
aF143
aF338
aF217
aF122
aF206
aF131
aF234
aF29
aF107
aF249
aF261
aF50
aF337
aF343
aF318
aF79
aF41
aF15
aF247
aF337
aF75
aF349
aF94
aF93
aF264
aF326
aF193
aF156
aF277
aF68
aF305
aF206
aF42
aF81
aF310
aF111
aF148
aF94
aF134
aF355
aF131
aF318
aF10
aF29
aF220
aF133
aF101
aF150
aF110
aF273
aF324
aF203
aF110
aF27
aF65
aF53
aF54
aF11
aF211
aF24
aF234
aF17
aF148
aF337
aF138
aF296
aF209
aF150
aF79
aF349
aF349
aF269
aF228
aF158
aF190
aF94
aF65
aF248
aF197
aF123
aF225
aF297
aF343
aF12
aF20
aF120
aF315
aF258
aF44
aF343
aF3
aF325
aF280
aF219
aF145
aF264
aF79
aF62
aF224
aF174
aF204
aF79
aF356
aF79
aF206
aF146
aF339
aF206
aF158
aF200
aF40
aF318
aF313
aF167
aF315
aF220
aF132
aF65
aF305
aF203
aF242
aF81
aF334
aF319
aF240
aF260
aF162
aF206
aF348
aF45
aF255
aF343
aF257
aF247
aF111
aF62
aF85
aF177
aF203
aF120
aF238
aF342
aF209
aF242
aF92
aF119
aF305
aF29
aF28
aF174
aF200
aF291
aF101
aF19
aF228
aF56
aF152
aF224
aF247
aF265
aF289
aF318
aF316
aF223
aF287
aF242
aF305
aF79
aF45
aF239
aF29
aF29
aF278
aF152
aF88
aF66
aF154
aF203
aF328
aF3
aF32
aF353
aF77
aF335
aF249
aF256
aF317
aF343
aF346
aF83
aF161
aF149
aF137
aF168
aF3
aF313
aF275
aF214
aF235
aF110
aF287
aF134
aF3
aF347
aF132
aF340
aF211
aF120
aF127
aF70
aF78
aF1
aF315
aF109
aF115
aF31
aF142
aF330
aF336
aF227
aF247
aF77
aF149
aF256
aF68
aF138
aF135
aF7
aF211
aF113
aF171
aF310
aF110
aF124
aF244
aF214
aF221
aF119
aF1
aF1
aF236
aF236
aF138
aF240
aF305
aF45
aF83
aF53
aF318
aF307
aF222
aF296
aF139
aF126
aF228
aF95
aF44
aF356
aF182
aF86
aF3
aF158
aF166
aF193
aF233
aF3
aF335
aF55
aF111
aF45
aF148
aF332
aF64
aF120
aF351
aF229
aF11
aF307
aF337
aF65
aF242
aF113
aF325
aF23
aF339
aF326
aF77
aF3
aF191
aF305
aF268
aF236
aF152
aF112
aF162
aF260
aF332
aF184
aF110
aF8
aF143
aF135
aF141
aF152
aF234
aF154
aF211
aF247
aF206
aF126
aF96
aF317
aF343
aF245
aF168
aF182
aF352
aF156
aF264
aF103
aF174
aF2
aF226
aF219
aF289
aF241
aF260
aF70
aF113
aF3
aF41
aF249
aF219
aF317
aF193
aF187
aF87
aF140
aF293
aF153
aF339
aF81
aF146
aF86
aF28
aF66
aF89
aF300
aF136
aF149
aF255
aF267
aF11
aF139
aF333
aF154
aF62
aF152
aF70
aF143
aF189
aF15
aF162
aF119
aF45
aF221
aF132
aF122
aF291
aF281
aF10
aF182
aF188
aF94
aF136
aF101
aF221
aF3
aF198
aF159
aF49
aF329
aF256
aF120
aF182
aF173
aF343
aF134
aF309
aF94
aF8
aF189
aF257
aF333
aF150
aF20
aF250
aF82
aF159
aF330
aF346
aF347
aF356
aF34
aF278
aF217
aF352
aF312
aF317
aF343
aF272
aF94
aF155
aF357
aF353
aF317
aF149
aF131
aF293
aF240
aF288
aF314
aF346
aF139
aF113
aF56
aF120
aF242
aF227
aF92
aF307
aF249
aF340
aF218
aF247
aF24
aF67
aF211
aF260
aF60
aF215
aF143
aF318
aF215
aF231
aF66
aF298
aF327
aF342
aF226
aF62
aF65
aF80
aF72
aF317
aF32
aF17
aF235
aF162
aF70
aF97
aF67
aF143
aF99
aF231
aF324
aF330
aF331
aF241
aF272
aF198
aF95
aF15
aF197
aF18
aF156
aF123
aF200
aF119
aF260
aF188
aF11
aF337
aF223
aF102
aF135
aF18
aF343
aF170
aF134
aF81
aF146
aF296
aF344
aF266
aF172
aF148
aF293
aF305
aF56
aF15
aF70
aF327
aF8
aF307
aF26
aF269
aF15
aF18
aF280
aF232
aF281
aF140
aF108
aF88
aF216
aF3
aF249
aF160
aF40
aF3
aF352
aF356
aF251
aF330
aF305
aF198
aF185
aF181
aF100
aF313
aF82
aF271
aF269
aF280
aF45
aF45
aF158
aF79
aF283
aF70
aF289
aF332
aF68
aF72
aF15
aF330
aF116
aF300
aF31
aF313
aF81
aF120
aF120
aF292
aF96
aF343
aF45
aF149
aF211
aF215
aF355
aF112
aF137
aF125
aF258
aF207
aF65
aF189
aF258
aF260
aF242
aF11
aF28
aF325
aF130
aF328
aF218
aF242
aF143
aF45
aF137
aF256
aF208
aF317
aF46
aF214
aF242
aF332
aF65
aF266
aF209
aF179
aF79
aF56
aF103
aF53
aF264
aF350
aF228
aF100
aF276
aF143
aF338
aF186
aF319
aF319
aF146
aF135
aF59
aF332
aF317
aF242
aF158
aF338
aF305
aF164
aF171
aF302
aF124
aF209
aF331
aF186
aF241
aF56
aF55
aF274
aF143
aF43
aF206
aF116
aF318
aF40
aF146
aF206
aF251
aF41
aF338
aF29
aF152
aF41
aF56
aF9
aF58
aF24
aF140
aF109
aF216
aF191
aF4
aF193
aF326
aF348
aF236
aF35
aF173
aF324
aF164
aF79
aF162
aF325
aF164
aF341
aF308
aF77
aF274
aF41
aF313
aF221
aF202
aF164
aF345
aF328
aF306
aF289
aF158
aF316
aF15
aF326
aF300
aF173
aF174
aF182
aF158
aF326
aF194
aF218
aF244
aF123
aF315
aF110
aF308
aF53
aF28
aF109
aF123
aF32
aF118
aF326
aF239
aF79
aF198
aF18
aF91
aF171
aF310
aF319
aF314
aF107
aF297
aF62
aF40
aF318
aF123
aF280
aF74
aF123
aF157
aF148
aF264
aF41
aF132
aF279
aF113
aF227
aF134
aF352
aF250
aF337
aF212
aF11
aF300
aF112
aF200
aF347
aF66
aF120
aF76
aF65
aF6
aF264
aF152
aF200
aF17
aF82
aF159
aF169
aF254
aF326
aF20
aF286
aF343
aF321
aF162
aF327
aF356
aF325
aF98
aF29
aF9
aF320
aF239
aF126
aF133
aF355
aF41
aF319
aF122
aF218
aF9
aF170
aF132
aF136
aF237
aF353
aF209
aF29
aF354
aF159
aF0
aF125
aF223
aF68
aF46
aF146
aF296
aF130
aF93
aF265
aF148
aF197
aF203
aF155
aF112
aF215
aF339
aF65
aF206
aF353
aF251
aF1
aF343
aF274
aF132
aF143
aF148
aF3
aF11
aF235
aF24
aF206
aF166
aF262
aF287
aF211
aF299
aF5
aF253
aF327
aF135
aF128
aF65
aF324
aF272
aF357
aF313
aF352
aF62
aF281
aF310
aF352
aF282
aF280
aF317
aF234
aF214
aF275
aF164
aF271
aF213
aF113
aF237
aF59
aF91
aF310
aF203
aF63
aF113
aF189
aF3
aF208
aF93
aF317
aF68
aF313
aF11
aF56
aF46
aF317
aF158
aF268
aF316
aF2
aF15
aF71
aF343
aF342
aF40
aF333
aF33
aF119
aF135
aF167
aF241
aF319
aF343
aF355
aF131
aF156
aF154
aF140
aF76
aF324
aF318
aF280
aF138
aF261
aF162
aF70
aF264
aF264
aF129
aF333
aF241
aF306
aF274
aF332
aF312
aF41
aF203
aF300
aF56
aF314
aF136
aF281
aF7
aF188
aF334
aF310
aF274
aF123
aF241
aF281
aF240
aF342
aF280
aF318
aF152
aF68
aF41
aF59
aF81
aF42
aF241
aF203
aF300
aF347
aF56
aF70
aF186
aF26
aF100
aF225
aF15
aF113
aF252
aF93
aF84
aF355
aF135
aF264
aF46
aF117
aF6
aF152
aF337
aF326
aF112
aF343
aF83
aF345
aF229
aF94
aF261
aF218
aF216
aF166
aF23
aF28
aF222
aF44
aF353
aF15
aF319
aF347
aF63
aF339
aF56
aF277
aF291
aF242
aF132
aF305
aF132
aF313
aF90
aF255
aF107
aF318
aF18
aF94
aF311
aF288
aF348
aF256
aF343
aF33
aF231
aF171
aF276
aF332
aF243
aF355
aF8
aF9
aF102
aF46
aF37
aF206
aF65
aF81
aF95
aF56
aF227
aF2
aF355
aF206
aF337
aF217
aF193
aF70
aF45
aF96
aF219
aF271
aF316
aF128
aF13
aF15
aF103
aF343
aF123
aF92
aF93
aF10
aF215
aF310
aF340
aF83
aF170
aF136
aF173
aF10
aF120
aF317
aF326
aF229
aF148
aF242
aF165
aF221
aF119
aF345
aF14
aF33
aF45
aF20
aF17
aF256
aF15
aF204
aF139
aF231
aF108
aF203
aF116
aF242
aF183
aF128
aF66
aF247
aF326
aF290
aF56
aF274
aF23
aF309
aF208
aF185
aF103
aF17
aF291
aF316
aF133
aF126
aF233
aF333
aF310
aF41
aF149
aF116
aF312
aF298
aF14
aF41
aF206
aF203
aF56
aF112
aF143
aF260
aF56
aF199
aF10
aF258
aF232
aF134
aF116
aF66
aF146
aF43
aF220
aF306
aF264
aF342
aF68
aF148
aF219
aF112
aF108
aF149
aF207
aF50
aF97
aF154
aF284
aF150
aF166
aF225
aF0
aF265
aF119
aF199
aF355
aF203
aF326
aF324
aF287
aF23
aF228
aF82
aF79
aF44
aF215
aF56
aF9
aF282
aF246
aF327
aF148
aF196
aF308
aF339
aF20
aF319
aF105
aF333
aF343
aF135
aF343
aF242
aF134
aF255
aF81
aF132
aF141
aF351
aF70
aF40
aF247
aF300
aF199
aF235
aF300
aF59
aF228
aF3
aF261
aF313
aF0
aF264
aF220
aF332
aF305
aF146
aF191
aF261
aF247
aF277
aF134
aF117
aF308
aF310
aF348
aF319
aF94
aF87
aF66
aF353
aF338
aF336
aF262
aF247
aF40
aF1
aF114
aF146
aF6
aF120
aF139
aF23
aF80
aF333
aF334
aF348
aF138
aF115
aF43
aF148
aF316
aF232
aF143
aF56
aF271
aF108
aF126
aF161
aF113
aF24
aF333
aF39
aF148
aF94
aF149
aF253
aF186
aF324
aF203
aF329
aF110
aF116
aF232
aF347
aF325
aF81
aF42
aF300
aF343
aF275
aF343
aF328
aF52
aF310
aF256
aF300
aF198
aF130
aF208
aF185
aF282
aF200
aF125
aF8
aF357
aF191
aF224
aF27
aF214
aF11
aF338
aF155
aF97
aF118
aF94
aF346
aF197
aF271
aF281
aF115
aF130
aF346
aF175
aF20
aF156
aF63
aF6
aF115
aF133
aF174
aF264
aF87
aF148
aF76
aF131
aF14
aF73
aF221
aF343
aF284
aF316
aF352
aF50
aF132
aF193
aF187
aF76
aF106
aF326
aF119
aF313
aF209
aF28
aF313
aF309
aF287
aF70
aF170
aF280
aF20
aF12
aF162
aF134
aF139
aF152
aF199
aF276
aF355
aF260
aF203
aF203
aF248
aF119
aF198
aF247
aF223
aF263
aF139
aF59
aF253
aF5
aF219
aF313
aF61
aF102
aF132
aF167
aF146
aF38
aF79
aF233
aF150
aF150
aF28
aF318
aF338
aF351
aF334
aF136
aF73
aF194
aF235
aF220
aF182
aF3
aF47
aF199
aF330
aF277
aF199
aF11
aF143
aF216
aF158
aF150
aF335
aF130
aF196
aF249
aF201
aF327
aF241
aF108
aF166
aF352
aF44
aF77
aF217
aF139
aF335
aF317
aF15
aF94
aF61
aF357
aF279
aF310
aF313
aF16
aF179
aF242
aF315
aF206
aF233
aF277
aF212
aF115
aF143
aF171
aF132
aF214
aF133
aF143
aF356
aF326
aF148
aF356
aF282
aF197
aF107
aF193
aF314
aF221
aF72
aF81
aF41
aF189
aF148
aF327
aF327
aF343
aF92
aF218
aF113
aF227
aF32
aF125
aF61
aF56
aF111
aF328
aF152
aF130
aF337
aF13
aF226
aF24
aF343
aF137
aF238
aF277
aF234
aF305
aF274
aF235
aF301
aF71
aF88
aF24
aF267
aF306
aF338
aF264
aF6
aF118
aF167
aF40
aF103
aF13
aF17
aF263
aF198
aF112
aF76
aF231
aF239
aF318
aF2
aF18
aF65
aF242
aF185
aF36
aF282
aF84
aF256
aF188
aF263
aF173
aF107
aF100
aF342
aF206
aF190
aF260
aF248
aF37
aF253
aF280
aF225
aF37
aF146
aF200
aF285
aF143
aF34
aF201
aF155
aF340
aF308
aF151
aF240
aF344
aF4
aF356
aF79
aF14
aF135
aF131
aF315
aF162
aF307
aF94
aF343
aF318
aF65
aF55
aF264
aF35
aF216
aF286
aF257
aF279
aF329
aF342
aF280
aF3
aF107
aF237
aF120
aF149
aF214
aF6
aF114
aF143
aF356
aF95
aF225
aF131
aF256
aF33
aF211
aF68
aF122
aF220
aF215
aF160
aF138
aF139
aF174
aF66
aF331
aF310
aF112
aF284
aF47
aF94
aF103
aF115
aF96
aF308
aF315
aF310
aF273
aF81
aF164
aF154
aF254
aF111
aF285
aF73
aF286
aF339
aF119
aF92
aF287
aF308
aF77
aF308
aF337
aF348
aF237
aF62
aF203
aF276
aF40
aF332
aF131
aF119
aF313
aF326
aF335
aF293
aF269
aF79
aF326
aF36
aF318
aF221
aF209
aF140
aF305
aF157
aF167
aF79
aF132
aF94
aF0
aF150
aF242
aF329
aF107
aF258
aF237
aF93
aF217
aF53
aF148
aF16
aF3
aF215
aF316
aF165
aF193
aF46
aF118
aF46
aF333
aF198
aF160
aF355
aF326
aF205
aF43
aF133
aF196
aF324
aF101
aF165
aF44
aF324
aF43
aF181
aF313
aF94
aF181
aF277
aF247
aF112
aF81
aF99
aF30
aF9
aF326
aF168
aF41
aF187
aF122
aF31
aF85
aF14
aF211
aF32
aF213
aF256
aF102
aF59
aF103
aF327
aF247
aF339
aF0
aF10
aF85
aF135
aF217
aF34
aF313
aF263
aF267
aF132
aF3
aF50
aF215
aF201
aF285
aF328
aF23
aF227
aF131
aF0
aF310
aF106
aF94
aF43
aF338
aF99
aF205
aF49
aF313
aF171
aF35
aF55
aF183
aF131
aF219
aF15
aF209
aF307
aF62
aF31
aF122
aF229
aF24
aF309
aF119
aF203
aF70
aF269
aF245
aF3
aF133
aF339
aF357
aF259
aF155
aF237
aF120
aF242
aF340
aF20
aF242
aF11
aF220
aF242
aF19
aF312
aF190
aF24
aF50
aF23
aF148
aF258
aF143
aF246
aF12
aF58
aF130
aF50
aF203
aF50
aF224
aF62
aF143
aF197
aF343
aF119
aF148
aF221
aF204
aF128
aF181
aF221
aF280
aF193
aF193
aF211
aF147
aF152
aF98
aF286
aF53
aF343
aF357
aF116
aF5
aF105
aF193
aF249
aF220
aF148
aF317
aF300
aF112
aF40
aF181
aF70
aF335
aF308
aF353
aF318
aF201
aF15
aF299
aF139
aF193
aF119
aF154
aF233
aF183
aF289
aF245
aF253
aF97
aF202
aF6
aF28
aF50
aF312
aF307
aF41
aF29
aF156
aF348
aF324
aF278
aF43
aF291
aF181
aF38
aF242
aF189
aF170
aF335
aF181
aF263
aF146
aF132
aF319
aF287
aF37
aF137
aF343
aF153
aF242
aF136
aF17
aF280
aF81
aF119
aF11
aF170
aF43
aF20
aF50
aF66
aF160
aF263
aF228
aF7
aF206
aF34
aF356
aF140
aF218
aF87
aF148
aF291
aF346
aF135
aF44
aF310
aF183
aF134
aF53
aF161
aF185
aF43
aF281
aF182
aF157
aF140
aF49
aF6
aF103
aF155
aF250
aF111
aF288
aF91
aF160
aF203
aF46
aF156
aF269
aF11
aF152
aF40
aF324
aF110
aF235
aF343
aF215
aF256
aF265
aF123
aF318
aF0
aF307
aF41
aF190
aF135
aF269
aF113
aF317
aF296
aF277
aF332
aF138
aF209
aF199
aF17
aF187
aF154
aF324
aF271
aF331
aF234
aF108
aF291
aF158
aF112
aF13
aF353
aF300
aF342
aF131
aF268
aF282
aF31
aF317
aF343
aF65
aF343
aF40
aF356
aF333
aF43
aF291
aF3
aF206
aF107
aF203
aF260
aF146
aF300
aF330
aF332
aF218
aF338
aF245
aF326
aF300
aF153
aF96
aF198
aF118
aF355
aF50
aF330
aF68
aF247
aF87
aF227
aF357
aF149
aF356
aF33
aF46
aF199
aF357
aF217
aF6
aF156
aF17
aF169
aF193
aF310
aF158
aF83
aF310
aF55
aF124
aF202
aF343
aF99
aF15
aF343
aF260
aF24
aF313
aF227
aF337
aF62
aF65
aF55
aF282
aF107
aF45
aF278
aF291
aF263
aF86
aF342
aF158
aF305
aF160
aF3
aF150
aF343
aF19
aF234
aF280
aF286
aF148
aF157
aF353
aF304
aF255
aF215
aF31
aF46
aF278
aF326
aF355
aF93
aF288
aF282
aF142
aF90
aF152
aF16
aF244
aF86
aF281
aF223
aF249
aF94
aF45
aF79
aF162
aF325
aF355
aF56
aF88
aF317
aF123
aF182
aF324
aF45
aF136
aF179
aF236
aF258
aF308
aF82
aF1
aF193
aF98
aF200
aF117
aF15
aF53
aF305
aF153
aF146
aF160
aF224
aF212
aF232
aF143
aF79
aF117
aF193
aF24
aF65
aF98
aF315
aF343
aF103
aF343
aF148
aF17
aF143
aF355
aF184
aF143
aF261
aF194
aF249
aF335
aF170
aF150
aF185
aF317
aF156
aF251
aF136
aF190
aF41
aF143
aF297
aF93
aF206
aF311
aF257
aF127
aF19
aF151
aF81
aF188
aF227
aF97
aF240
aF120
aF113
aF137
aF34
aF305
aF45
aF247
aF198
aF338
aF332
aF277
aF224
aF83
aF272
aF139
aF185
aF256
aF242
aF40
aF318
aF134
aF54
aF87
aF98
aF217
aF154
aF181
aF111
aF10
aF257
aF230
aF354
aF10
aF164
aF337
aF100
aF155
aF47
aF193
aF304
aF68
aF152
aF236
aF28
aF140
aF116
aF247
aF176
aF313
aF59
aF81
aF268
aF155
aF149
aF217
aF313
aF43
aF92
aF239
aF123
aF206
aF222
aF120
aF251
aF214
aF327
aF200
aF357
aF148
aF347
aF260
aF332
aF45
aF220
aF43
aF44
aF278
aF148
aF248
aF46
aF338
aF88
aF65
aF174
aF23
aF332
aF5
aF324
aF209
aF225
aF153
aF132
aF152
aF203
aF164
aF213
aF219
aF103
aF70
aF283
aF307
aF137
aF73
aF203
aF65
aF112
aF338
aF335
aF71
aF130
aF93
aF15
aF140
aF23
aF9
aF200
aF29
aF203
aF131
aF277
aF198
aF203
aF307
aF212
aF15
aF79
aF216
aF94
aF337
aF120
aF147
aF158
aF131
aF259
aF113
aF324
aF43
aF136
aF206
aF120
aF84
aF313
aF59
aF242
aF100
aF305
aF281
aF70
aF155
aF319
aF40
aF88
aF158
aF278
aF314
aF117
aF189
aF65
aF58
aF10
aF203
aF300
aF152
aF155
aF222
aF17
aF327
aF239
aF55
aF50
aF264
aF113
aF48
aF343
aF305
aF56
aF135
aF73
aF71
aF316
aF23
aF132
aF249
aF148
aF46
aF55
aF227
aF256
aF325
aF332
aF112
aF214
aF251
aF290
aF200
aF159
aF125
aF278
aF297
aF319
aF219
aF128
aF0
aF46
aF15
aF241
aF212
aF162
aF235
aF40
aF313
aF226
aF317
aF256
aF343
aF112
aF123
aF357
aF56
aF264
aF354
aF287
aF56
aF82
aF215
aF288
aF216
aF100
aF324
aF87
aF296
aF317
aF123
aF193
aF314
aF7
aF298
aF6
aF307
aF281
aF15
aF140
aF227
aF305
aF353
aF335
aF136
aF308
aF131
aF247
aF269
aF28
aF273
aF65
aF218
aF291
aF84
aF300
aF58
aF67
aF56
aF319
aF155
aF318
aF154
aF62
aF313
aF160
aF81
aF340
aF32
aF84
aF112
aF189
aF85
aF62
aF132
aF211
aF9
aF19
aF181
aF12
aF201
aF219
aF24
aF15
aF94
aF44
aF42
aF28
aF43
aF353
aF32
aF112
aF212
aF143
aF6
aF357
aF207
aF36
aF88
aF88
aF1
aF110
aF152
aF349
aF290
aF3
aF294
aF193
aF355
aF313
aF68
aF135
aF80
aF297
aF264
aF307
aF152
aF159
aF143
aF181
aF324
aF240
aF119
aF357
aF296
aF234
aF225
aF305
aF181
aF263
aF138
aF343
aF80
aF310
aF220
aF265
aF65
aF300
aF56
aF188
aF224
aF263
aF12
aF113
aF219
aF305
aF247
aF154
aF65
aF130
aF286
aF136
aF257
aF142
aF131
aF188
aF65
aF65
aF231
aF305
aF183
aF174
aF100
aF42
aF11
aF68
aF80
aF109
aF274
aF308
aF227
aF110
aF152
aF245
aF219
aF149
aF65
aF338
aF275
aF115
aF325
aF55
aF85
aF123
aF300
aF343
aF154
aF146
aF2
aF348
aF15
aF315
aF138
aF140
aF49
aF317
aF110
aF165
aF50
aF158
aF54
aF40
aF56
aF2
aF3
aF93
aF62
aF143
aF193
aF96
aF313
aF40
aF55
aF168
aF69
aF120
aF194
aF343
aF310
aF326
aF156
aF137
aF343
aF203
aF132
aF219
aF141
aF37
aF8
aF179
aF313
aF219
aF40
aF189
aF3
aF144
aF131
aF148
aF319
aF308
aF208
aF355
aF119
aF287
aF40
aF79
aF313
aF346
aF150
aF203
aF236
aF133
aF107
aF305
aF88
aF338
aF124
aF148
aF61
aF158
aF8
aF209
aF138
aF122
aF308
aF265
aF16
aF345
aF30
aF70
aF188
aF239
aF100
aF257
aF136
aF236
aF305
aF291
aF298
aF43
aF39
aF221
aF331
aF306
aF138
aF329
aF210
aF343
aF52
aF329
aF238
aF8
aF68
aF313
aF290
aF289
aF317
aF1
aF207
aF12
aF272
aF5
aF269
aF318
aF287
aF94
aF323
aF13
aF79
aF320
aF131
aF269
aF260
aF250
aF110
aF131
aF343
aF305
aF214
aF249
aF242
aF166
aF113
aF0
aF189
aF103
aF183
aF56
aF174
aF287
aF45
aF100
aF182
aF326
aF334
aF271
aF357
aF73
aF40
aF183
aF224
aF44
aF79
aF66
aF88
aF309
aF357
aF132
aF66
aF213
aF352
aF33
aF130
aF287
aF253
aF139
aF310
aF275
aF179
aF173
aF135
aF239
aF44
aF13
aF325
aF357
aF128
aF148
aF343
aF152
aF186
aF87
aF74
aF80
aF198
aF221
aF327
aF24
aF256
aF346
aF16
aF339
aF73
aF28
aF174
aF242
aF11
aF61
aF213
aF300
aF123
aF33
aF43
aF231
aF338
aF240
aF343
aF84
aF70
aF94
aF330
aF112
aF249
aF280
aF10
aF200
aF357
aF357
aF278
aF107
aF28
aF94
aF66
aF355
aF107
aF139
aF260
aF299
aF166
aF326
aF353
aF113
aF357
aF40
aF143
aF95
aF76
aF332
aF125
aF150
aF333
aF139
aF251
aF173
aF209
aF158
aF275
aF65
aF258
aF308
aF247
aF107
aF146
aF17
aF242
aF33
aF60
aF78
aF326
aF65
aF342
aF65
aF199
aF125
aF97
aF193
aF3
aF168
aF239
aF88
aF219
aF281
aF215
aF6
aF53
aF22
aF308
aF299
aF219
aF109
aF120
aF263
aF284
aF307
aF205
aF343
aF312
aF222
aF327
aF326
aF310
aF0
aF234
aF347
aF275
aF205
aF37
aF310
aF33
aF283
aF296
aF300
aF158
aF219
aF143
aF7
aF240
aF123
aF11
aF190
aF158
aF97
aF170
aF148
aF317
aF333
aF323
aF7
aF255
aF343
aF162
aF241
aF176
aF337
aF262
aF120
aF242
aF50
aF297
aF17
aF271
aF87
aF114
aF103
aF56
aF332
aF198
aF63
aF305
aF197
aF213
aF340
aF343
aF189
aF263
aF135
aF315
aF71
aF346
aF200
aF193
aF307
aF45
aF208
aF307
aF0
aF357
aF203
aF86
aF256
aF269
aF165
aF240
aF33
aF347
aF218
aF283
aF55
aF280
aF302
aF241
aF313
aF247
aF332
aF131
aF73
aF7
aF298
aF335
aF41
aF352
aF9
aF10
aF356
aF291
aF353
aF267
aF198
aF338
aF91
aF266
aF138
aF276
aF150
aF56
aF333
aF124
aF15
aF112
aF310
aF240
aF59
aF168
aF158
aF135
aF299
aF119
aF163
aF221
aF277
aF236
aF94
aF56
aF353
aF47
aF41
aF118
aF327
aF179
aF203
aF67
aF251
aF327
aF357
aF101
aF143
aF165
aF155
aF199
aF283
aF155
aF253
aF10
aF236
aF208
aF264
aF131
aF143
aF125
aF319
aF260
aF313
aF228
aF206
aF171
aF256
aF22
aF105
aF68
aF92
aF205
aF3
aF332
aF8
aF140
aF24
aF279
aF299
aF160
aF83
aF58
aF353
aF107
aF103
aF62
aF107
aF99
aF185
aF291
aF7
aF277
aF135
aF342
aF34
aF137
aF108
aF242
aF93
aF146
aF148
aF134
aF81
aF324
aF83
aF18
aF159
aF296
aF130
aF78
aF97
aF208
aF154
aF155
aF198
aF346
aF105
aF77
aF277
aF126
aF202
aF286
aF69
aF236
aF114
aF17
aF119
aF24
aF37
aF166
aF288
aF80
aF167
aF40
aF189
aF102
aF16
aF281
aF154
aF188
aF61
aF46
aF41
aF44
aF150
aF307
aF143
aF134
aF207
aF18
aF296
aF296
aF240
aF247
aF52
aF253
aF342
aF250
aF302
aF7
aF68
aF305
aF347
aF227
aF103
aF284
aF162
aF107
aF331
aF3
aF245
aF296
aF202
aF110
aF81
aF112
aF203
aF240
aF355
aF77
aF267
aF263
aF325
aF286
aF279
aF97
aF117
aF226
aF140
aF44
aF108
aF260
aF162
aF235
aF206
aF349
aF138
aF237
aF240
aF87
aF61
aF245
aF170
aF31
aF134
aF273
aF181
aF314
aF203
aF11
aF56
aF40
aF48
aF154
aF13
aF143
aF44
aF29
aF107
aF185
aF152
aF58
aF95
aF240
aF290
aF68
aF203
aF202
aF63
aF291
aF266
aF339
aF182
aF70
aF228
aF164
aF245
aF93
aF240
aF33
aF164
aF227
aF100
aF71
aF244
aF275
aF62
aF167
aF56
aF255
aF55
aF263
aF168
aF239
aF318
aF261
aF103
aF348
aF355
aF221
aF274
aF53
aF166
aF107
aF157
aF154
aF174
aF318
aF317
aF113
aF314
aF15
aF343
aF60
aF157
aF357
aF189
aF37
aF48
aF272
aF93
aF131
aF157
aF56
aF241
aF143
aF345
aF94
aF88
aF203
aF4
aF281
aF212
aF50
aF8
aF6
aF88
aF332
aF116
aF343
aF66
aF211
aF221
aF28
aF313
aF343
aF128
aF190
aF155
aF275
aF115
aF44
aF318
aF29
aF260
aF46
aF113
aF311
aF132
aF340
aF108
aF300
aF192
aF347
aF211
aF236
aF262
aF149
aF44
aF219
aF7
aF335
aF352
aF206
aF277
aF158
aF240
aF236
aF289
aF265
aF319
aF43
aF95
aF306
aF128
aF300
aF118
aF248
aF29
aF28
aF149
aF117
aF131
aF224
aF202
aF81
aF29
aF158
aF332
aF154
aF242
aF78
aF189
aF267
aF168
aF118
aF183
aF42
aF206
aF343
aF221
aF256
aF140
aF270
aF246
aF165
aF96
aF4
aF319
aF66
aF114
aF302
aF43
aF324
aF155
aF319
aF241
aF290
aF67
aF332
aF238
aF22
aF331
aF11
aF335
aF311
aF330
aF131
aF50
aF258
aF357
aF223
aF70
aF317
aF254
aF317
aF254
aF67
aF188
aF315
aF298
aF247
aF99
aF81
aF186
aF127
aF302
aF182
aF299
aF28
aF97
aF200
aF40
aF334
aF337
aF79
aF116
aF43
aF281
aF238
aF340
aF65
aF18
aF111
aF318
aF241
aF128
aF182
aF276
aF336
aF137
aF22
aF241
aF190
aF269
aF67
aF0
aF43
aF33
aF264
aF242
aF44
aF33
aF42
aF85
aF40
aF280
aF225
aF41
aF79
aF15
aF211
aF343
aF298
aF11
aF63
aF35
aF267
aF178
aF67
aF107
aF132
aF120
aF143
aF344
aF15
aF94
aF159
aF8
aF9
aF208
aF161
aF196
aF47
aF230
aF181
aF82
aF208
aF334
aF346
aF13
aF50
aF335
aF235
aF31
aF356
aF148
aF181
aF173
aF70
aF245
aF139
aF348
aF2
aF340
aF128
aF333
aF29
aF143
aF38
aF262
aF317
aF13
aF98
aF258
aF247
aF34
aF39
aF81
aF217
aF159
aF355
aF179
aF351
aF357
aF66
aF179
aF14
aF72
aF119
aF242
aF154
aF43
aF227
aF245
aF106
aF114
aF343
aF225
aF9
aF165
aF325
aF107
aF260
aF134
aF194
aF47
aF165
aF154
aF156
aF215
aF189
aF16
aF96
aF313
aF254
aF123
aF272
aF299
aF89
aF147
aF137
aF50
aF169
aF326
aF306
aF247
aF181
aF278
aF152
aF167
aF233
aF61
aF18
aF53
aF242
aF292
aF352
aF191
aF162
aF16
aF227
aF308
aF50
aF160
aF65
aF226
aF107
aF133
aF125
aF59
aF213
aF193
aF119
aF29
aF94
aF123
aF325
aF174
aF47
aF217
aF131
aF115
aF152
aF343
aF219
aF311
aF13
aF206
aF181
aF143
aF260
aF150
aF223
aF203
aF62
aF11
aF267
aF270
aF84
aF260
aF157
aF257
aF225
aF15
aF289
aF311
aF342
aF305
aF253
aF123
aF249
aF353
aF232
aF189
aF247
aF203
aF288
aF21
aF310
aF332
aF62
aF312
aF107
aF138
aF315
aF236
aF219
aF94
aF320
aF79
aF119
aF315
aF111
aF307
aF124
aF119
aF277
aF120
aF203
aF169
aF65
aF43
aF239
aF137
aF110
aF330
aF136
aF3
aF319
aF138
aF308
aF325
aF140
aF46
aF124
aF72
aF170
aF227
aF230
aF87
aF212
aF170
aF188
aF233
aF204
aF156
aF321
aF356
aF131
aF32
aF5
aF132
aF216
aF332
aF27
aF293
aF24
aF256
aF154
aF2
aF110
aF46
aF217
aF253
aF8
aF117
aF300
aF174
aF14
aF323
aF193
aF132
aF83
aF265
aF81
aF143
aF53
aF194
aF193
aF24
aF83
aF17
aF196
aF75
aF326
aF28
aF47
aF5
aF269
aF307
aF163
aF245
aF148
aF235
aF305
aF3
aF317
aF67
aF343
aF244
aF219
aF215
aF277
aF188
aF225
aF194
aF3
aF140
aF157
aF247
aF313
aF43
aF205
aF353
aF65
aF34
aF22
aF131
aF50
aF331
aF205
aF11
aF15
aF219
aF326
aF149
aF11
aF86
aF265
aF310
aF130
aF226
aF218
aF152
aF167
aF128
aF50
aF233
aF117
aF239
aF173
aF65
aF8
aF222
aF267
aF173
aF62
aF225
aF46
aF65
aF269
aF62
aF254
aF43
aF41
aF258
aF158
aF343
aF3
aF4
aF65
aF271
aF344
aF59
aF53
aF217
aF249
aF72
aF310
aF72
aF55
aF227
aF108
aF82
aF329
aF305
aF263
aF49
aF50
aF100
aF355
aF149
aF94
aF313
aF24
aF94
aF11
aF230
aF93
aF315
aF213
aF214
aF307
aF188
aF150
aF310
aF202
aF337
aF159
aF114
aF204
aF251
aF346
aF313
aF265
aF215
aF171
aF18
aF35
aF155
aF307
aF62
aF224
aF110
aF114
aF267
aF131
aF305
aF95
aF43
aF104
aF212
aF218
aF158
aF320
aF291
aF260
aF221
aF313
aF94
aF308
aF279
aF15
aF56
aF65
aF11
aF219
aF62
aF16
aF8
aF206
aF162
aF72
aF227
aF339
aF247
aF107
aF172
aF37
aF193
aF156
aF203
aF110
aF98
aF94
aF94
aF273
aF110
aF143
aF168
aF68
aF41
aF335
aF330
aF280
aF353
aF337
aF103
aF124
aF274
aF174
aF202
aF308
aF264
aF332
aF150
aF68
aF317
aF300
aF179
aF280
aF227
aF18
aF66
aF335
aF249
aF205
aF267
aF317
aF131
aF100
aF213
aF148
aF187
aF308
aF158
aF72
aF247
aF170
aF61
aF191
aF40
aF79
aF193
aF107
aF24
aF68
aF20
aF222
aF313
aF343
aF24
aF15
aF56
aF313
aF355
aF219
aF2
aF265
aF289
aF316
aF79
aF124
aF165
aF313
aF293
aF14
aF56
aF123
aF50
aF185
aF39
aF254
aF97
aF248
aF276
aF120
aF134
aF15
aF86
aF347
aF245
aF336
aF239
aF94
aF273
aF234
aF219
aF77
aF203
aF48
aF342
aF157
aF83
aF329
aF173
aF209
aF114
aF42
aF113
aF334
aF115
aF197
aF192
aF355
aF11
aF62
aF224
aF70
aF155
aF317
aF265
aF353
aF357
aF263
aF44
aF281
aF52
aF128
aF184
aF339
aF148
aF203
aF188
aF314
aF107
aF193
aF281
aF246
aF152
aF24
aF59
aF87
aF253
aF233
aF189
aF157
aF1
aF269
aF182
aF237
aF288
aF83
aF138
aF310
aF100
aF216
aF119
aF187
aF175
aF175
aF342
aF50
aF152
aF81
aF282
aF259
aF219
aF138
aF119
aF171
aF156
aF305
aF123
aF325
aF127
aF200
aF291
aF166
aF320
aF78
aF61
aF119
aF55
aF189
aF108
aF326
aF3
aF6
aF16
aF219
aF195
aF43
aF190
aF168
aF325
aF54
aF302
aF93
aF94
aF11
aF285
aF130
aF122
aF165
aF327
aF344
aF165
aF152
aF313
aF325
aF11
aF148
aF50
aF123
aF132
aF188
aF315
aF164
aF260
aF301
aF155
aF80
aF131
aF136
aF185
aF83
aF216
aF122
aF59
aF333
aF175
aF200
aF140
aF188
aF162
aF343
aF200
aF119
aF287
aF333
aF83
aF62
aF312
aF120
aF138
aF11
aF117
aF11
aF154
aF281
aF100
aF333
aF319
aF238
aF117
aF24
aF38
aF202
aF357
aF103
aF305
aF208
aF152
aF43
aF11
aF310
aF104
aF247
aF309
aF159
aF107
aF239
aF236
aF177
aF65
aF119
aF28
aF275
aF355
aF162
aF258
aF95
aF277
aF2
aF56
aF185
aF260
aF93
aF198
aF99
aF269
aF132
aF15
aF28
aF123
aF173
aF136
aF140
aF325
aF143
aF162
aF313
aF340
aF223
aF101
aF152
aF110
aF9
aF97
aF331
aF238
aF120
aF18
aF123
aF356
aF82
aF260
aF338
aF312
aF152
aF21
aF81
aF206
aF123
aF94
aF28
aF69
aF135
aF247
aF15
aF88
aF293
aF213
aF187
aF72
aF317
aF310
aF3
aF70
aF66
aF347
aF159
aF343
aF150
aF99
aF333
aF154
aF312
aF312
aF135
aF355
aF32
aF8
aF132
aF310
aF187
aF240
aF319
aF347
aF101
aF17
aF352
aF62
aF6
aF311
aF327
aF49
aF265
aF273
aF327
aF167
aF351
aF103
aF192
aF88
aF219
aF250
aF81
aF193
aF120
aF291
aF307
aF203
aF156
aF29
aF168
aF265
aF36
aF256
aF318
aF207
aF269
aF291
aF156
aF138
aF146
aF86
aF165
aF16
aF164
aF79
aF82
aF353
aF247
aF196
aF242
aF252
aF324
aF63
aF3
aF112
aF206
aF34
aF139
aF35
aF316
aF289
aF275
aF91
aF338
aF206
aF332
aF139
aF166
aF3
aF107
aF40
aF55
aF355
aF15
aF345
aF307
aF347
aF139
aF20
aF137
aF164
aF162
aF317
aF245
aF218
aF11
aF25
aF189
aF310
aF153
aF263
aF182
aF153
aF93
aF343
aF62
aF260
aF352
aF135
aF136
aF152
aF8
aF318
aF159
aF31
aF323
aF306
aF265
aF234
aF158
aF299
aF313
aF317
aF342
aF4
aF233
aF313
aF168
aF330
aF150
aF6
aF87
aF343
aF15
aF269
aF110
aF18
aF50
aF241
aF343
aF135
aF353
aF122
aF338
aF146
aF205
aF98
aF148
aF257
aF223
aF46
aF281
aF31
aF310
aF312
aF241
aF166
aF188
aF130
aF93
aF251
aF306
aF82
aF46
aF185
aF343
aF275
aF24
aF209
aF301
aF72
aF356
aF3
aF305
aF343
aF318
aF152
aF242
aF158
aF281
aF308
aF244
aF63
aF142
aF356
aF81
aF219
aF312
aF343
aF191
aF357
aF305
aF310
aF66
aF62
aF300
aF245
aF317
aF158
aF213
aF120
aF302
aF113
aF21
aF339
aF309
aF148
aF9
aF258
aF50
aF158
aF338
aF242
aF11
aF353
aF134
aF225
aF207
aF314
aF80
aF202
aF80
aF353
aF310
aF314
aF219
aF132
aF154
aF305
aF260
aF211
aF343
aF44
aF134
aF334
aF317
aF308
aF46
aF327
aF46
aF84
aF18
aF347
aF277
aF312
aF203
aF329
aF110
aF265
aF3
aF136
aF317
aF355
aF299
aF200
aF311
aF171
aF337
aF3
aF8
aF300
aF305
aF88
aF43
aF343
aF120
aF354
aF167
aF134
aF277
aF277
aF159
aF318
aF120
aF305
aF94
aF103
aF20
aF46
aF313
aF288
aF213
aF158
aF203
aF19
aF227
aF52
aF174
aF56
aF355
aF315
aF162
aF124
aF146
aF35
aF299
aF173
aF324
aF40
aF69
aF162
aF197
aF330
aF198
aF309
aF147
aF200
aF8
aF115
aF242
aF183
aF214
aF307
aF43
aF79
aF297
aF343
aF128
aF205
aF198
aF164
aF287
aF323
aF150
aF225
aF343
aF132
aF242
aF78
aF267
aF247
aF173
aF101
aF308
aF155
aF193
aF173
aF152
aF155
aF136
aF159
aF298
aF62
aF357
aF313
aF260
aF79
aF263
aF125
aF29
aF269
aF267
aF132
aF233
aF353
aF299
aF162
aF9
aF11
aF11
aF260
aF184
aF186
aF280
aF135
aF266
aF299
aF110
aF32
aF343
aF260
aF237
aF168
aF343
aF184
aF134
aF268
aF337
aF308
aF310
aF252
aF24
aF149
aF287
aF137
aF205
aF193
aF168
aF208
aF257
aF308
aF332
aF324
aF333
aF171
aF77
aF287
aF185
aF135
aF183
aF95
aF157
aF44
aF317
aF34
aF143
aF164
aF294
aF203
aF355
aF81
aF40
aF318
aF347
aF116
aF335
aF79
aF15
aF111
aF335
aF181
aF5
aF115
aF209
aF314
aF334
aF213
aF187
aF119
aF316
aF24
aF139
aF14
aF87
aF15
aF269
aF313
aF253
aF154
aF83
aF93
aF45
aF215
aF215
aF61
aF52
aF226
aF231
aF313
aF288
aF296
aF174
aF343
aF264
aF211
aF159
aF305
aF68
aF356
aF131
aF66
aF134
aF193
aF191
aF123
aF327
aF28
aF215
aF33
aF44
aF313
aF229
aF306
aF79
aF265
aF123
aF346
aF56
aF38
aF135
aF329
aF149
aF153
aF264
aF139
aF289
aF305
aF83
aF3
aF287
aF138
aF315
aF338
aF247
aF143
aF342
aF256
aF206
aF41
aF40
aF276
aI6090
I6821
tp5
a((lp6
F339
aF73
aF105
aF96
aF351
aF92
aF54
aF137
aF61
aF119
aF56
aF291
aF25
aF281
aF161
aF318
aF207
aF75
aF256
aF338
aF54
aF308
aF290
aF356
aF172
aF283
aF324
aF308
aF186
aF242
aF36
aF123
aF141
aF15
aF65
aF317
aF172
aF139
aF176
aF163
aF108
aF328
aF122
aF27
aF70
aF199
aF275
aF130
aF199
aF295
aF225
aF47
aF85
aF224
aF14
aF213
aF35
aF73
aF327
aF154
aF124
aF122
aF151
aF130
aF94
aF180
aF114
aF41
aF206
aF50
aF277
aF84
aF303
aF356
aF5
aF8
aF92
aF20
aF62
aF321
aF207
aF47
aF322
aF223
aF251
aF102
aF32
aF311
aF236
aF203
aF100
aF96
aF225
aF203
aF338
aF83
aF176
aF75
aF264
aF244
aF12
aF157
aF56
aF87
aF28
aF355
aF91
aF188
aF334
aF137
aF174
aF12
aF90
aF162
aF104
aF243
aF100
aF222
aF82
aF265
aF170
aF47
aF64
aF236
aF3
aF258
aF239
aF111
aF235
aF299
aF298
aF322
aF122
aF259
aF22
aF325
aF281
aF246
aF91
aF70
aF218
aF190
aF222
aF302
aF47
aF70
aF243
aF181
aF260
aF254
aF313
aF355
aF281
aF83
aF208
aF302
aF203
aF194
aF131
aF50
aF75
aF141
aF168
aF21
aF87
aF338
aF324
aF42
aF152
aF50
aF67
aF176
aF338
aF42
aF170
aF243
aF246
aF160
aF337
aF163
aF180
aF186
aF105
aF125
aF56
aF121
aF215
aF293
aF107
aF25
aF18
aF92
aF193
aF52
aF291
aF73
aF338
aF195
aF115
aF163
aF353
aF116
aF320
aF95
aF194
aF343
aF38
aF212
aF254
aF243
aF61
aF338
aF86
aF147
aF170
aF47
aF336
aF91
aF177
aF22
aF218
aF224
aF194
aF56
aF264
aF233
aF76
aF76
aF347
aF54
aF143
aF122
aF357
aF285
aF137
aF83
aF134
aF241
aF70
aF209
aF15
aF317
aF22
aF264
aF122
aF197
aF76
aF188
aF6
aF106
aF343
aF352
aF86
aF94
aF183
aF239
aF281
aF37
aF249
aF290
aF237
aF36
aF76
aF283
aF308
aF20
aF176
aF47
aF96
aF256
aF187
aF231
aF68
aF179
aF83
aF348
aF226
aF83
aF241
aF238
aF114
aF170
aF353
aF38
aF70
aF298
aF122
aF332
aF327
aF247
aF73
aF353
aF122
aF159
aF284
aF172
aF197
aF83
aF150
aF289
aF34
aF204
aF338
aF234
aF190
aF356
aF132
aF215
aF106
aF253
aF226
aF311
aF249
aF137
aF347
aF141
aF47
aF89
aF82
aF319
aF132
aF260
aF119
aF196
aF239
aF77
aF101
aF122
aF190
aF102
aF161
aF305
aF289
aF196
aF81
aF114
aF23
aF188
aF147
aF25
aF132
aF158
aF151
aF170
aF123
aF102
aF204
aF189
aF274
aF25
aF200
aF32
aF170
aF338
aF42
aF187
aF338
aF38
aF283
aF94
aF267
aF202
aF188
aF72
aF202
aF146
aF265
aF357
aF213
aF339
aF150
aF311
aF50
aF40
aF105
aF239
aF322
aF296
aF27
aF316
aF121
aF86
aF146
aF71
aF42
aF161
aF23
aF201
aF18
aF151
aF350
aF69
aF356
aF316
aF313
aF338
aF199
aF194
aF132
aF87
aF288
aF213
aF344
aF25
aF323
aF206
aF240
aF20
aF243
aF237
aF308
aF299
aF188
aF286
aF356
aF25
aF143
aF338
aF61
aF181
aF15
aF314
aF325
aF343
aF143
aF108
aF66
aF356
aF294
aF188
aF232
aF345
aF194
aF302
aF194
aF328
aF289
aF338
aF79
aF170
aF215
aF202
aF254
aF338
aF135
aF35
aF86
aF131
aF238
aF187
aF188
aF32
aF291
aF311
aF41
aF283
aF257
aF19
aF111
aF142
aF86
aF6
aF43
aF325
aF147
aF345
aF132
aF322
aF79
aF69
aF119
aF344
aF39
aF79
aF64
aF140
aF43
aF286
aF162
aF204
aF197
aF22
aF345
aF18
aF47
aF131
aF245
aF95
aF126
aF297
aF184
aF7
aF224
aF196
aF164
aF55
aF128
aF244
aF41
aF269
aF236
aF302
aF193
aF253
aF328
aF338
aF15
aF176
aF347
aF315
aF168
aF327
aF190
aF247
aF292
aF217
aF281
aF62
aF131
aF176
aF167
aF196
aF314
aF318
aF203
aF355
aF50
aF180
aF338
aF261
aF314
aF218
aF47
aF31
aF162
aF236
aF83
aF303
aF36
aF131
aF62
aF41
aF286
aF204
aF296
aF32
aF157
aF202
aF189
aF322
aF160
aF324
aF157
aF159
aF303
aF273
aF339
aF143
aF179
aF140
aF5
aF357
aF118
aF175
aF42
aF296
aF75
aF151
aF296
aF121
aF147
aF169
aF324
aF246
aF177
aF305
aF213
aF70
aF322
aF5
aF181
aF23
aF257
aF322
aF156
aF139
aF196
aF65
aF169
aF340
aF62
aF106
aF204
aF283
aF109
aF176
aF8
aF338
aF50
aF223
aF15
aF20
aF190
aF189
aF194
aF19
aF12
aF246
aF95
aF45
aF224
aF338
aF126
aF87
aF85
aF202
aF153
aF352
aF127
aF178
aF283
aF70
aF102
aF269
aF225
aF157
aF9
aF294
aF314
aF61
aF296
aF173
aF264
aF62
aF239
aF103
aF261
aF313
aF145
aF178
aF72
aF190
aF20
aF342
aF338
aF61
aF84
aF172
aF335
aF204
aF56
aF232
aF69
aF94
aF51
aF122
aF20
aF136
aF159
aF63
aF70
aF327
aF107
aF69
aF223
aF327
aF22
aF188
aF256
aF239
aF41
aF197
aF338
aF96
aF327
aF121
aF210
aF83
aF12
aF351
aF8
aF175
aF109
aF171
aF266
aF307
aF150
aF70
aF71
aF176
aF356
aF260
aF54
aF72
aF47
aF4
aF219
aF261
aF56
aF148
aF79
aF50
aF208
aF322
aF94
aF284
aF146
aF188
aF254
aF223
aF120
aF300
aF197
aF26
aF43
aF162
aF181
aF136
aF326
aF74
aF312
aF18
aF157
aF76
aF308
aF105
aF215
aF212
aF134
aF70
aF157
aF245
aF20
aF136
aF157
aF223
aF94
aF340
aF158
aF208
aF121
aF271
aF260
aF86
aF103
aF345
aF142
aF335
aF196
aF246
aF287
aF64
aF18
aF87
aF157
aF353
aF29
aF110
aF188
aF155
aF264
aF292
aF283
aF273
aF194
aF335
aF289
aF234
aF338
aF341
aF131
aF122
aF21
aF10
aF27
aF320
aF115
aF161
aF13
aF61
aF79
aF236
aF234
aF71
aF214
aF340
aF167
aF188
aF209
aF112
aF247
aF146
aF50
aF357
aF350
aF322
aF145
aF297
aF189
aF33
aF339
aF223
aF332
aF353
aF61
aF237
aF328
aF178
aF281
aF281
aF133
aF331
aF188
aF246
aF188
aF103
aF246
aF130
aF54
aF216
aF338
aF240
aF346
aF251
aF179
aF118
aF37
aF137
aF188
aF10
aF214
aF292
aF91
aF77
aF95
aF239
aF124
aF313
aF264
aF126
aF3
aF327
aF186
aF272
aF107
aF301
aF165
aF219
aF187
aF194
aF283
aF289
aF170
aF356
aF342
aF86
aF320
aF271
aF70
aF114
aF50
aF262
aF204
aF37
aF61
aF84
aF31
aF114
aF197
aF147
aF70
aF292
aF47
aF76
aF186
aF242
aF32
aF26
aF276
aF238
aF294
aF73
aF335
aF193
aF8
aF196
aF357
aF26
aF54
aF132
aF289
aF157
aF213
aF88
aF351
aF66
aF221
aF60
aF346
aF243
aF333
aF219
aF6
aF124
aF234
aF135
aF223
aF279
aF146
aF82
aF50
aF207
aF354
aF96
aF26
aF184
aF189
aF134
aF36
aF328
aF202
aF161
aF6
aF9
aF53
aF346
aF208
aF304
aF324
aF215
aF291
aF132
aF154
aF74
aF352
aF176
aF267
aF105
aF306
aF177
aF290
aF91
aF4
aF329
aF50
aF28
aF223
aF87
aF219
aF75
aF125
aF322
aF109
aF63
aF293
aF242
aF172
aF159
aF25
aF147
aF161
aF99
aF26
aF66
aF107
aF221
aF320
aF154
aF146
aF139
aF333
aF328
aF292
aF234
aF151
aF21
aF225
aF188
aF69
aF146
aF131
aF147
aF210
aF72
aF34
aF162
aF336
aF131
aF20
aF181
aF241
aF333
aF76
aF267
aF278
aF323
aF75
aF24
aF216
aF222
aF24
aF315
aF208
aF86
aF187
aF290
aF26
aF87
aF96
aF179
aF75
aF264
aF79
aF0
aF272
aF184
aF113
aF140
aF62
aF233
aF171
aF67
aF283
aF4
aF12
aF146
aF238
aF221
aF177
aF105
aF195
aF311
aF291
aF237
aF93
aF134
aF174
aF5
aF73
aF96
aF351
aF70
aF314
aF199
aF345
aF111
aF154
aF115
aF47
aF330
aF136
aF266
aF74
aF6
aF88
aF248
aF50
aF207
aF246
aF187
aF83
aF137
aF187
aF98
aF283
aF71
aF125
aF23
aF202
aF77
aF320
aF73
aF354
aF14
aF188
aF76
aF83
aF34
aF196
aF25
aF171
aF142
aF41
aF236
aF176
aF77
aF236
aF245
aF43
aF353
aF74
aF197
aF203
aF299
aF334
aF190
aF318
aF206
aF208
aF199
aF4
aF204
aF180
aF50
aF237
aF251
aF147
aF351
aF163
aF306
aF195
aF150
aF180
aF120
aF232
aF216
aF174
aF322
aF308
aF1
aF237
aF42
aF71
aF179
aF151
aF133
aF338
aF73
aF320
aF294
aF196
aF67
aF244
aF235
aF223
aF356
aF296
aF314
aF317
aF213
aF298
aF240
aF20
aF251
aF171
aF122
aF144
aF40
aF85
aF22
aF182
aF39
aF251
aF61
aF283
aF131
aF247
aF234
aF177
aF206
aF334
aF331
aF187
aF341
aF241
aF212
aF291
aF181
aF338
aF257
aF43
aF141
aF119
aF15
aF263
aF330
aF138
aF124
aF284
aF73
aF82
aF87
aF333
aF219
aF194
aF123
aF176
aF215
aF71
aF50
aF69
aF272
aF289
aF66
aF38
aF154
aF103
aF122
aF9
aF42
aF84
aF213
aF98
aF131
aF12
aF176
aF278
aF12
aF69
aF144
aF338
aF37
aF12
aF215
aF251
aF103
aF331
aF187
aF176
aF230
aF241
aF50
aF117
aF169
aF346
aF317
aF305
aF111
aF146
aF305
aF339
aF227
aF268
aF102
aF281
aF31
aF4
aF243
aF121
aF301
aF123
aF216
aF197
aF220
aF42
aF176
aF137
aF10
aF223
aF246
aF239
aF124
aF222
aF332
aF4
aF4
aF314
aF278
aF194
aF330
aF134
aF77
aF36
aF25
aF193
aF178
aF338
aF338
aF314
aF130
aF3
aF288
aF181
aF4
aF137
aF196
aF162
aF318
aF146
aF216
aF151
aF236
aF61
aF149
aF199
aF197
aF27
aF151
aF210
aF338
aF123
aF173
aF270
aF50
aF228
aF89
aF41
aF177
aF296
aF313
aF113
aF29
aF137
aF328
aF163
aF338
aF294
aF115
aF163
aF74
aF164
aF184
aF67
aF83
aF124
aF37
aF277
aF284
aF208
aF213
aF247
aF86
aF204
aF69
aF136
aF286
aF312
aF12
aF22
aF273
aF150
aF102
aF194
aF186
aF122
aF86
aF194
aF96
aF113
aF124
aF148
aF266
aF157
aF99
aF246
aF38
aF118
aF302
aF208
aF76
aF70
aF207
aF212
aF273
aF59
aF231
aF317
aF224
aF47
aF47
aF122
aF168
aF243
aF50
aF322
aF132
aF23
aF252
aF144
aF213
aF31
aF4
aF318
aF83
aF29
aF213
aF169
aF26
aF246
aF254
aF210
aF108
aF172
aF332
aF293
aF91
aF204
aF62
aF159
aF246
aF74
aF193
aF22
aF176
aF175
aF288
aF283
aF147
aF121
aF221
aF51
aF33
aF226
aF317
aF70
aF275
aF233
aF199
aF338
aF50
aF338
aF285
aF201
aF276
aF122
aF22
aF242
aF47
aF5
aF210
aF265
aF57
aF151
aF18
aF246
aF134
aF172
aF84
aF218
aF230
aF342
aF61
aF334
aF50
aF232
aF315
aF176
aF282
aF231
aF145
aF272
aF112
aF25
aF285
aF335
aF139
aF336
aF170
aF322
aF191
aF146
aF83
aF303
aF22
aF25
aF289
aF190
aF40
aF346
aF196
aF252
aF176
aF148
aF62
aF165
aF34
aF26
aF111
aF293
aF226
aF101
aF167
aF138
aF322
aF285
aF22
aF114
aF317
aF147
aF173
aF61
aF4
aF243
aF95
aF147
aF353
aF40
aF286
aF147
aF225
aF271
aF253
aF263
aF232
aF178
aF249
aF356
aF63
aF237
aF270
aF130
aF209
aF47
aF209
aF343
aF124
aF94
aF296
aF56
aF344
aF109
aF174
aF208
aF346
aF240
aF47
aF159
aF270
aF88
aF106
aF3
aF72
aF204
aF344
aF91
aF105
aF206
aF208
aF170
aF209
aF183
aF125
aF245
aF209
aF155
aF77
aF69
aF108
aF160
aF99
aF338
aF289
aF184
aF131
aF103
aF269
aF175
aF58
aF72
aF226
aF322
aF222
aF177
aF335
aF278
aF50
aF213
aF56
aF9
aF329
aF116
aF316
aF131
aF243
aF238
aF14
aF340
aF243
aF71
aF333
aF144
aF188
aF35
aF153
aF245
aF172
aF50
aF34
aF243
aF181
aF288
aF43
aF196
aF83
aF98
aF196
aF43
aF144
aF101
aF35
aF237
aF170
aF95
aF237
aF293
aF86
aF1
aF73
aF214
aF180
aF338
aF25
aF202
aF288
aF320
aF245
aF94
aF286
aF274
aF56
aF146
aF64
aF353
aF20
aF93
aF85
aF197
aF154
aF290
aF213
aF278
aF141
aF279
aF122
aF204
aF332
aF338
aF47
aF218
aF34
aF276
aF334
aF132
aF129
aF141
aF246
aF235
aF353
aF253
aF86
aF136
aF29
aF134
aF189
aF337
aF351
aF207
aF353
aF281
aF256
aF62
aF233
aF276
aF104
aF267
aF34
aF264
aF243
aF25
aF170
aF163
aF98
aF124
aF294
aF83
aF84
aF69
aF236
aF328
aF71
aF187
aF103
aF165
aF173
aF278
aF240
aF194
aF182
aF45
aF283
aF9
aF181
aF243
aF342
aF44
aF179
aF157
aF40
aF56
aF119
aF100
aF275
aF22
aF127
aF227
aF151
aF123
aF308
aF318
aF340
aF82
aF163
aF127
aF119
aF342
aF68
aF278
aF157
aF235
aF117
aF86
aF298
aF134
aF172
aF204
aF213
aF350
aF324
aF198
aF10
aF299
aF314
aF236
aF42
aF1
aF61
aF338
aF188
aF246
aF67
aF12
aF335
aF138
aF256
aF91
aF12
aF241
aF88
aF331
aF69
aF148
aF318
aF213
aF88
aF113
aF271
aF283
aF345
aF140
aF289
aF179
aF311
aF316
aF189
aF350
aF243
aF330
aF91
aF194
aF197
aF192
aF45
aF207
aF96
aF222
aF267
aF288
aF150
aF132
aF152
aF283
aF212
aF342
aF357
aF272
aF75
aF226
aF192
aF205
aF42
aF169
aF103
aF209
aF173
aF321
aF304
aF246
aF111
aF41
aF278
aF247
aF303
aF170
aF246
aF40
aF338
aF122
aF124
aF56
aF318
aF352
aF195
aF155
aF165
aF323
aF312
aF28
aF211
aF122
aF69
aF84
aF193
aF22
aF213
aF150
aF116
aF206
aF346
aF260
aF273
aF24
aF335
aF181
aF176
aF98
aF192
aF21
aF205
aF20
aF20
aF63
aF188
aF234
aF111
aF222
aF152
aF66
aF291
aF98
aF239
aF130
aF288
aF176
aF170
aF320
aF254
aF218
aF338
aF105
aF270
aF316
aF111
aF25
aF28
aF243
aF97
aF218
aF218
aF188
aF298
aF237
aF320
aF122
aF50
aF341
aF197
aF313
aF124
aF96
aF133
aF261
aF260
aF206
aF74
aF87
aF316
aF66
aF202
aF352
aF45
aF54
aF200
aF115
aF178
aF292
aF56
aF37
aF154
aF245
aF126
aF130
aF352
aF215
aF15
aF186
aF185
aF131
aF256
aF297
aF302
aF299
aF313
aF294
aF244
aF339
aF37
aF353
aF100
aF233
aF243
aF100
aF130
aF194
aF142
aF93
aF252
aF69
aF147
aF155
aF226
aF177
aF146
aF318
aF181
aF188
aF37
aF344
aF202
aF12
aF186
aF311
aF170
aF95
aF122
aF175
aF337
aF132
aF289
aF246
aF247
aF223
aF73
aF258
aF352
aF151
aF124
aF192
aF307
aF194
aF264
aF188
aF131
aF139
aF137
aF354
aF87
aF212
aF51
aF178
aF192
aF331
aF183
aF218
aF253
aF4
aF176
aF71
aF125
aF342
aF121
aF181
aF299
aF50
aF128
aF270
aF12
aF268
aF172
aF6
aF195
aF215
aF356
aF258
aF108
aF60
aF79
aF63
aF37
aF42
aF357
aF238
aF338
aF31
aF299
aF223
aF0
aF207
aF302
aF268
aF314
aF192
aF170
aF38
aF210
aF237
aF85
aF88
aF285
aF125
aF21
aF6
aF189
aF27
aF20
aF194
aF103
aF275
aF76
aF88
aF147
aF109
aF56
aF162
aF34
aF357
aF222
aF17
aF283
aF31
aF280
aF328
aF198
aF338
aF272
aF235
aF204
aF187
aF177
aF190
aF357
aF197
aF198
aF321
aF135
aF212
aF38
aF225
aF197
aF94
aF114
aF109
aF137
aF247
aF166
aF40
aF27
aF31
aF197
aF283
aF243
aF188
aF12
aF0
aF183
aF136
aF125
aF134
aF238
aF47
aF25
aF352
aF188
aF40
aF181
aF56
aF308
aF37
aF351
aF162
aF299
aF187
aF272
aF333
aF74
aF293
aF139
aF109
aF76
aF338
aF241
aF178
aF246
aF212
aF11
aF122
aF25
aF62
aF147
aF187
aF70
aF154
aF302
aF47
aF75
aF247
aF182
aF50
aF154
aF107
aF311
aF233
aF61
aF151
aF154
aF128
aF70
aF290
aF332
aF24
aF338
aF157
aF338
aF334
aF265
aF188
aF338
aF194
aF12
aF136
aF218
aF122
aF228
aF172
aF111
aF75
aF138
aF304
aF41
aF147
aF148
aF152
aF98
aF61
aF328
aF61
aF324
aF87
aF188
aF278
aF141
aF286
aF137
aF328
aF340
aF330
aF296
aF188
aF165
aF159
aF267
aF311
aF346
aF46
aF50
aF58
aF42
aF151
aF268
aF181
aF218
aF4
aF305
aF221
aF257
aF95
aF13
aF232
aF2
aF194
aF192
aF12
aF136
aF173
aF104
aF47
aF115
aF89
aF157
aF20
aF356
aF196
aF173
aF323
aF188
aF138
aF26
aF192
aF271
aF289
aF306
aF69
aF240
aF224
aF356
aF70
aF166
aF31
aF269
aF20
aF145
aF224
aF175
aF236
aF94
aF328
aF130
aF213
aF176
aF20
aF294
aF178
aF183
aF186
aF278
aF210
aF331
aF355
aF309
aF292
aF217
aF17
aF2
aF98
aF252
aF90
aF24
aF81
aF224
aF289
aF102
aF137
aF54
aF86
aF333
aF111
aF82
aF6
aF314
aF336
aF31
aF69
aF208
aF172
aF62
aF333
aF208
aF120
aF254
aF176
aF302
aF186
aF337
aF124
aF70
aF307
aF103
aF223
aF206
aF77
aF350
aF356
aF283
aF157
aF122
aF302
aF32
aF215
aF297
aF330
aF83
aF170
aF246
aF67
aF213
aF34
aF6
aF322
aF170
aF91
aF83
aF176
aF103
aF276
aF353
aF141
aF302
aF125
aF39
aF246
aF86
aF242
aF56
aF335
aF183
aF47
aF342
aF170
aF352
aF299
aF206
aF73
aF122
aF151
aF354
aF150
aF134
aF285
aF353
aF73
aF213
aF140
aF169
aF81
aF125
aF140
aF338
aF292
aF225
aF297
aF112
aF35
aF55
aF76
aF15
aF176
aF177
aF276
aF142
aF197
aF43
aF163
aF292
aF356
aF247
aF289
aF200
aF230
aF318
aF50
aF131
aF169
aF25
aF56
aF109
aF3
aF37
aF70
aF203
aF338
aF319
aF91
aF271
aF99
aF247
aF124
aF20
aF261
aF23
aF246
aF69
aF31
aF267
aF88
aF239
aF194
aF22
aF351
aF87
aF132
aF187
aF41
aF223
aF213
aF91
aF40
aF234
aF20
aF50
aF87
aF8
aF249
aF12
aF142
aF252
aF98
aF335
aF334
aF106
aF256
aF294
aF126
aF236
aF146
aF61
aF148
aF343
aF297
aF50
aF230
aF181
aF320
aF83
aF297
aF270
aF163
aF247
aF208
aF179
aF177
aF206
aF233
aF86
aF181
aF178
aF34
aF301
aF223
aF252
aF283
aF269
aF31
aF353
aF330
aF20
aF219
aF148
aF148
aF50
aF66
aF59
aF253
aF151
aF146
aF274
aF237
aF197
aF334
aF103
aF232
aF83
aF151
aF111
aF207
aF106
aF103
aF106
aF287
aF302
aF193
aF351
aF188
aF194
aF333
aF61
aF289
aF243
aF222
aF13
aF286
aF151
aF115
aF18
aF170
aF194
aF61
aF33
aF87
aF97
aF193
aF27
aF61
aF194
aF33
aF147
aF124
aF266
aF103
aF64
aF338
aF22
aF211
aF1
aF352
aF276
aF122
aF349
aF103
aF322
aF75
aF202
aF87
aF338
aF181
aF100
aF182
aF243
aF189
aF182
aF188
aF330
aF56
aF340
aF65
aF79
aF147
aF243
aF261
aF90
aF168
aF50
aF294
aF32
aF46
aF139
aF270
aF50
aF143
aF26
aF283
aF192
aF338
aF125
aF143
aF198
aF213
aF267
aF144
aF324
aF272
aF9
aF130
aF69
aF221
aF268
aF95
aF203
aF210
aF182
aF239
aF223
aF159
aF195
aF4
aF226
aF59
aF62
aF103
aF338
aF319
aF213
aF265
aF50
aF84
aF198
aF22
aF197
aF306
aF127
aF226
aF219
aF281
aF212
aF40
aF42
aF84
aF50
aF111
aF130
aF188
aF246
aF337
aF225
aF278
aF155
aF243
aF154
aF203
aF202
aF176
aF109
aF42
aF302
aF322
aF41
aF197
aF38
aF345
aF14
aF87
aF338
aF192
aF190
aF128
aF231
aF99
aF285
aF4
aF147
aF194
aF357
aF62
aF276
aF338
aF23
aF281
aF221
aF26
aF311
aF221
aF267
aF278
aF253
aF345
aF188
aF54
aF176
aF323
aF91
aF176
aF19
aF273
aF41
aF122
aF216
aF176
aF19
aF270
aF164
aF165
aF94
aF221
aF345
aF75
aF223
aF207
aF76
aF134
aF178
aF281
aF276
aF341
aF355
aF245
aF136
aF180
aF247
aF7
aF96
aF116
aF122
aF40
aF216
aF61
aF179
aF69
aF352
aF231
aF187
aF34
aF216
aF15
aF146
aF126
aF291
aF291
aF315
aF176
aF25
aF27
aF149
aF64
aF184
aF334
aF75
aF137
aF275
aF131
aF91
aF163
aF123
aF165
aF86
aF136
aF152
aF339
aF203
aF167
aF338
aF146
aF95
aF243
aF118
aF157
aF25
aF112
aF276
aF164
aF178
aF140
aF335
aF70
aF212
aF83
aF76
aF354
aF187
aF216
aF267
aF41
aF278
aF272
aF162
aF62
aF238
aF336
aF21
aF176
aF180
aF118
aF328
aF297
aF312
aF252
aF345
aF151
aF79
aF203
aF32
aF175
aF341
aF70
aF307
aF226
aF180
aF297
aF231
aF337
aF130
aF152
aF243
aF74
aF219
aF237
aF72
aF42
aF55
aF289
aF10
aF47
aF190
aF101
aF176
aF355
aF337
aF204
aF212
aF25
aF159
aF190
aF21
aF239
aF37
aF146
aF54
aF99
aF269
aF144
aF176
aF69
aF134
aF324
aF247
aF64
aF226
aF37
aF31
aF283
aF122
aF317
aF175
aF170
aF342
aF105
aF86
aF106
aF20
aF66
aF338
aF285
aF281
aF25
aF91
aF344
aF268
aF140
aF72
aF297
aF19
aF338
aF307
aF57
aF4
aF297
aF296
aF338
aF313
aF284
aF5
aF62
aF181
aF323
aF9
aF2
aF355
aF70
aF103
aF32
aF63
aF281
aF195
aF176
aF294
aF338
aF101
aF351
aF253
aF352
aF224
aF18
aF157
aF272
aF204
aF112
aF188
aF322
aF106
aF290
aF188
aF12
aF29
aF196
aF204
aF147
aF125
aF338
aF343
aF227
aF69
aF170
aF281
aF246
aF271
aF356
aF208
aF172
aF213
aF252
aF172
aF254
aF83
aF213
aF257
aF349
aF194
aF302
aF338
aF10
aF206
aF330
aF239
aF67
aF170
aF147
aF311
aF5
aF70
aF206
aF178
aF239
aF343
aF334
aF43
aF86
aF106
aF132
aF206
aF197
aF34
aF300
aF69
aF39
aF173
aF209
aF247
aF332
aF328
aF54
aF289
aF157
aF134
aF83
aF192
aF28
aF234
aF61
aF326
aF176
aF271
aF314
aF176
aF22
aF9
aF43
aF59
aF178
aF213
aF302
aF209
aF28
aF147
aF336
aF200
aF268
aF348
aF216
aF326
aF293
aF354
aF356
aF139
aF98
aF157
aF265
aF334
aF128
aF330
aF123
aF276
aF12
aF146
aF1
aF327
aF207
aF131
aF272
aF268
aF49
aF325
aF10
aF70
aF146
aF18
aF70
aF112
aF101
aF218
aF173
aF278
aF111
aF302
aF122
aF83
aF292
aF124
aF55
aF124
aF73
aF182
aF98
aF290
aF307
aF277
aF183
aF350
aF178
aF296
aF32
aF338
aF213
aF141
aF219
aF283
aF62
aF237
aF357
aF99
aF206
aF32
aF152
aF110
aF352
aF297
aF357
aF67
aF242
aF86
aF35
aF67
aF350
aF54
aF205
aF39
aF96
aF218
aF286
aF86
aF98
aF279
aF69
aF32
aF113
aF222
aF9
aF164
aF114
aF83
aF4
aF196
aF302
aF207
aF243
aF277
aF103
aF320
aF106
aF71
aF350
aF71
aF85
aF196
aF320
aF47
aF151
aF292
aF212
aF62
aF85
aF70
aF290
aF139
aF322
aF176
aF75
aF177
aF207
aF330
aF233
aF262
aF246
aF87
aF73
aF122
aF31
aF338
aF20
aF203
aF345
aF111
aF289
aF184
aF21
aF147
aF222
aF106
aF134
aF329
aF121
aF243
aF239
aF206
aF221
aF109
aF47
aF314
aF176
aF247
aF5
aF147
aF183
aF169
aF218
aF168
aF159
aF59
aF296
aF118
aF227
aF322
aF207
aF20
aF283
aF271
aF333
aF267
aF86
aF324
aF213
aF38
aF94
aF245
aF59
aF81
aF337
aF20
aF20
aF189
aF31
aF257
aF61
aF355
aF142
aF249
aF82
aF108
aF327
aF333
aF278
aF184
aF146
aF278
aF2
aF95
aF184
aF102
aF114
aF176
aF66
aF61
aF84
aF181
aF96
aF352
aF299
aF268
aF58
aF171
aF176
aF150
aF20
aF271
aF195
aF219
aF312
aF190
aF131
aF83
aF194
aF314
aF136
aF22
aF267
aF254
aF3
aF23
aF79
aF205
aF198
aF207
aF260
aF14
aF76
aF248
aF163
aF223
aF302
aF233
aF230
aF96
aF206
aF111
aF301
aF106
aF234
aF228
aF253
aF170
aF338
aF22
aF246
aF339
aF76
aF327
aF262
aF288
aF105
aF119
aF357
aF281
aF88
aF266
aF47
aF183
aF60
aF76
aF338
aF286
aF133
aF177
aF201
aF351
aF177
aF86
aF283
aF298
aF223
aF276
aF188
aF6
aF45
aF325
aF283
aF56
aF328
aF86
aF76
aF342
aF91
aF140
aF338
aF162
aF59
aF8
aF338
aF334
aF19
aF171
aF16
aF299
aF58
aF343
aF35
aF297
aF42
aF135
aF44
aF338
aF121
aF42
aF278
aF175
aF149
aF122
aF244
aF42
aF355
aF79
aF96
aF289
aF150
aF267
aF18
aF259
aF70
aF338
aF54
aF213
aF75
aF213
aF153
aF317
aF334
aF223
aF231
aF91
aF246
aF21
aF175
aF152
aF91
aF109
aF202
aF336
aF62
aF4
aF338
aF76
aF338
aF289
aF23
aF79
aF103
aF131
aF73
aF323
aF194
aF83
aF45
aF245
aF32
aF237
aF76
aF39
aF351
aF179
aF70
aF215
aF273
aF140
aF269
aF257
aF223
aF233
aF181
aF85
aF181
aF234
aF5
aF151
aF354
aF301
aF37
aF351
aF294
aF19
aF290
aF286
aF330
aF322
aF122
aF107
aF95
aF178
aF70
aF12
aF323
aF143
aF262
aF43
aF196
aF208
aF196
aF8
aF267
aF313
aF239
aF246
aF73
aF352
aF213
aF278
aF122
aF239
aF25
aF184
aF111
aF25
aF285
aF260
aF212
aF72
aF183
aF159
aF246
aF188
aF338
aF186
aF351
aF188
aF236
aF211
aF332
aF99
aF40
aF89
aF339
aF188
aF196
aF151
aF306
aF149
aF73
aF222
aF9
aF285
aF320
aF233
aF79
aF122
aF334
aF175
aF252
aF71
aF223
aF323
aF125
aF353
aF106
aF246
aF97
aF286
aF204
aF222
aF330
aF267
aF289
aF36
aF176
aF293
aF184
aF230
aF243
aF18
aF76
aF86
aF95
aF169
aF131
aF31
aF223
aF94
aF4
aF137
aF302
aF4
aF338
aF244
aF178
aF279
aF76
aF167
aF356
aF52
aF208
aF142
aF225
aF124
aF279
aF88
aF84
aF356
aF114
aF258
aF102
aF91
aF31
aF286
aF279
aF73
aF294
aF105
aF73
aF352
aF47
aF56
aF86
aF294
aF115
aF105
aF143
aF188
aF37
aF209
aF293
aF76
aF188
aF180
aF297
aF62
aF0
aF130
aF65
aF271
aF151
aF271
aF42
aF151
aF286
aF218
aF174
aF185
aF200
aF231
aF174
aF86
aF167
aF188
aF12
aF8
aF212
aF93
aF51
aF190
aF106
aF79
aF106
aF183
aF0
aF323
aF56
aF192
aF285
aF243
aF144
aF122
aF77
aF301
aF289
aF270
aF136
aF168
aF223
aF338
aF196
aF292
aF111
aF3
aF268
aF83
aF196
aF79
aF87
aF27
aF96
aF115
aF190
aF279
aF223
aF109
aF131
aF110
aF339
aF263
aF114
aF168
aF75
aF177
aF242
aF71
aF342
aF91
aF237
aF45
aF64
aF176
aF278
aF339
aF121
aF177
aF267
aF247
aF13
aF171
aF125
aF304
aF197
aF185
aF243
aF207
aF111
aF323
aF173
aF34
aF173
aF218
aF96
aF252
aF173
aF130
aF35
aF125
aF51
aF325
aF2
aF252
aF173
aF283
aF18
aF147
aF171
aF223
aF219
aF327
aF232
aF189
aF81
aF119
aF140
aF244
aF15
aF132
aF56
aF163
aF297
aF318
aF216
aF243
aF38
aF12
aF77
aF31
aF45
aF94
aF91
aF34
aF194
aF32
aF121
aF206
aF89
aF12
aF299
aF303
aF206
aF288
aF155
aF13
aF199
aF194
aF357
aF8
aF128
aF50
aF187
aF224
aF109
aF173
aF223
aF82
aF19
aF157
aF338
aF129
aF8
aF67
aF256
aF54
aF62
aF151
aF29
aF303
aF283
aF190
aF38
aF351
aF19
aF65
aF61
aF85
aF77
aF12
aF180
aF168
aF263
aF319
aF215
aF57
aF339
aF41
aF19
aF261
aF349
aF64
aF245
aF204
aF340
aF353
aF169
aF108
aF122
aF289
aF345
aF29
aF154
aF268
aF54
aF212
aF253
aF157
aF143
aF157
aF196
aF115
aF7
aF323
aF111
aF56
aF318
aF283
aF289
aF120
aF281
aF54
aF70
aF222
aF335
aF83
aF198
aF148
aF344
aF9
aF31
aF351
aF352
aF103
aF301
aF113
aF180
aF288
aF283
aF99
aF94
aF140
aF286
aF279
aF178
aF254
aF14
aF201
aF301
aF78
aF20
aF65
aF208
aF338
aF352
aF213
aF18
aF112
aF94
aF303
aF349
aF147
aF283
aF67
aF242
aF168
aF197
aF168
aF194
aF150
aF242
aF69
aF170
aF137
aF246
aF166
aF103
aF342
aF204
aF51
aF292
aF347
aF70
aF58
aF83
aF61
aF355
aF229
aF94
aF73
aF179
aF339
aF84
aF5
aF157
aF299
aF288
aF246
aF336
aF32
aF25
aF30
aF337
aF232
aF289
aF75
aF163
aF10
aF335
aF338
aF278
aF333
aF99
aF131
aF258
aF155
aF272
aF162
aF342
aF299
aF223
aF43
aF348
aF42
aF103
aF319
aF15
aF64
aF233
aF191
aF187
aF172
aF200
aF322
aF70
aF343
aF124
aF81
aF106
aF69
aF188
aF138
aF187
aF191
aF178
aF50
aF195
aF184
aF226
aF79
aF212
aF179
aF334
aF23
aF278
aF12
aF291
aF186
aF91
aF47
aF294
aF158
aF37
aF285
aF214
aF322
aF198
aF70
aF175
aF122
aF150
aF103
aF56
aF197
aF164
aF176
aF86
aF119
aF296
aF65
aF285
aF116
aF50
aF137
aF244
aF172
aF219
aF212
aF42
aF105
aF163
aF149
aF42
aF157
aF281
aF216
aF355
aF199
aF94
aF237
aF8
aF317
aF24
aF246
aF22
aF4
aF20
aF178
aF157
aF354
aF351
aF29
aF29
aF25
aF87
aF111
aF124
aF21
aF297
aF222
aF303
aF35
aF239
aF256
aF170
aF204
aF243
aF352
aF289
aF99
aF249
aF357
aF273
aF228
aF338
aF15
aF210
aF328
aF225
aF222
aF61
aF122
aF271
aF242
aF305
aF313
aF357
aF39
aF346
aF270
aF18
aF338
aF122
aF271
aF243
aF93
aF286
aF18
aF51
aF206
aF271
aF170
aF50
aF118
aF40
aF188
aF13
aF109
aF144
aF222
aF124
aF20
aF332
aF231
aF328
aF7
aF216
aF122
aF100
aF289
aF173
aF136
aF111
aF241
aF342
aF213
aF209
aF221
aF44
aF116
aF182
aF348
aF188
aF41
aF83
aF203
aF301
aF121
aF357
aF69
aF231
aF142
aF335
aF5
aF352
aF317
aF327
aF272
aF130
aF325
aF132
aF334
aF325
aF286
aF143
aF129
aF40
aF70
aF193
aF296
aF320
aF76
aF57
aF257
aF62
aF179
aF10
aF163
aF279
aF324
aF43
aF330
aF262
aF177
aF223
aF42
aF342
aF47
aF121
aF193
aF143
aF18
aF132
aF194
aF38
aF268
aF42
aF120
aF8
aF125
aF169
aF221
aF355
aF289
aF132
aF24
aF357
aF281
aF246
aF320
aF153
aF283
aF243
aF10
aF281
aF148
aF102
aF61
aF170
aF151
aF338
aF122
aF12
aF231
aF43
aF218
aF71
aF252
aF50
aF218
aF273
aF227
aF234
aF270
aF252
aF45
aF309
aF57
aF54
aF208
aF196
aF155
aF338
aF5
aF306
aF47
aF99
aF304
aF197
aF143
aF141
aF146
aF143
aF183
aF329
aF110
aF270
aF92
aF66
aF338
aF253
aF246
aF194
aF197
aF146
aF176
aF279
aF218
aF251
aF50
aF350
aF315
aF1
aF281
aF230
aF86
aF213
aF157
aF174
aF251
aF115
aF86
aF22
aF170
aF315
aF355
aF197
aF144
aF136
aF45
aF23
aF76
aF42
aF8
aF283
aF116
aF173
aF206
aF8
aF293
aF94
aF109
aF83
aF338
aF140
aF214
aF57
aF283
aF223
aF103
aF223
aF202
aF232
aF42
aF181
aF288
aF90
aF320
aF196
aF243
aF247
aF36
aF50
aF126
aF234
aF203
aF181
aF216
aF356
aF328
aF283
aF246
aF192
aF50
aF64
aF23
aF216
aF286
aF226
aF154
aF222
aF188
aF296
aF281
aF20
aF342
aF194
aF217
aF140
aF320
aF13
aF276
aF69
aF8
aF260
aF118
aF172
aF114
aF209
aF342
aF223
aF243
aF214
aF210
aF77
aF32
aF151
aF70
aF106
aF98
aF254
aF60
aF111
aF292
aF252
aF82
aF318
aF148
aF13
aF105
aF177
aF228
aF188
aF273
aF293
aF263
aF73
aF345
aF29
aF333
aF51
aF163
aF313
aF335
aF164
aF231
aF54
aF228
aF188
aF353
aF352
aF229
aF208
aF252
aF187
aF176
aF9
aF185
aF168
aF207
aF270
aF91
aF318
aF122
aF159
aF92
aF40
aF352
aF170
aF172
aF226
aF51
aF109
aF54
aF237
aF204
aF56
aF155
aF354
aF242
aF75
aF353
aF119
aF285
aF193
aF338
aF340
aF351
aF283
aF177
aF26
aF338
aF184
aF83
aF243
aF184
aF67
aF243
aF69
aF242
aF136
aF292
aF230
aF260
aF338
aF91
aF178
aF179
aF136
aF252
aF2
aF13
aF188
aF87
aF342
aF251
aF283
aF98
aF9
aF222
aF267
aF170
aF31
aF207
aF83
aF338
aF174
aF122
aF318
aF339
aF90
aF94
aF353
aF223
aF300
aF263
aF273
aF150
aF355
aF86
aF66
aF334
aF251
aF179
aF4
aF356
aF292
aF135
aF0
aF346
aF223
aF333
aF319
aF352
aF173
aF243
aF58
aF202
aF228
aF131
aF235
aF327
aF311
aF149
aF177
aF338
aF70
aF308
aF159
aF266
aF188
aF318
aF82
aF77
aF50
aF213
aF99
aF338
aF48
aF334
aF299
aF92
aF124
aF132
aF147
aF208
aF231
aF37
aF213
aF187
aF349
aF284
aF278
aF15
aF20
aF289
aF292
aF343
aF170
aF222
aF256
aF278
aF342
aF292
aF105
aF8
aF122
aF127
aF147
aF91
aF124
aF270
aF281
aF217
aF286
aF31
aF20
aF290
aF302
aF223
aF302
aF281
aF45
aF183
aF62
aF187
aF246
aF333
aF229
aF131
aF231
aF188
aF157
aF305
aF283
aF62
aF122
aF6
aF170
aF337
aF73
aF163
aF86
aF130
aF196
aF352
aF164
aF43
aF192
aF19
aF236
aF289
aF69
aF167
aF75
aF173
aF18
aF234
aF336
aF9
aF247
aF149
aF137
aF203
aF338
aF222
aF342
aF129
aF351
aF146
aF105
aF353
aF242
aF299
aF293
aF63
aF40
aF338
aF12
aF213
aF197
aF29
aF187
aF172
aF126
aF242
aF242
aF346
aF50
aF163
aF270
aF324
aF262
aF339
aF237
aF342
aF70
aF139
aF32
aF338
aF91
aF228
aF213
aF281
aF147
aF315
aF223
aF44
aF202
aF320
aF83
aF299
aF338
aF338
aF258
aF226
aF251
aF178
aF230
aF147
aF263
aF108
aF67
aF248
aF195
aF316
aF74
aF40
aF156
aF173
aF22
aF177
aF146
aF113
aF313
aF343
aF124
aF95
aF170
aF342
aF243
aF70
aF73
aF283
aF35
aF131
aF61
aF187
aF241
aF65
aF131
aF26
aF86
aF12
aF256
aF165
aF207
aF319
aF337
aF147
aF110
aF237
aF126
aF178
aF171
aF112
aF155
aF103
aF194
aF290
aF62
aF328
aF333
aF259
aF61
aF103
aF325
aF311
aF342
aF170
aF70
aF70
aF288
aF119
aF131
aF350
aF32
aF317
aF297
aF314
aF206
aF194
aF62
aF178
aF338
aF188
aF43
aF216
aF286
aF86
aF143
aF294
aF327
aF264
aF205
aF290
aF111
aF289
aF56
aF189
aF103
aF219
aF62
aF219
aF143
aF131
aF223
aF130
aF196
aF260
aF336
aF173
aF172
aF269
aF197
aF163
aF246
aF189
aF185
aF186
aF100
aF96
aF185
aF335
aF192
aF203
aF22
aF241
aF99
aF216
aF183
aF235
aF213
aF38
aF132
aF54
aF50
aF12
aF197
aF212
aF338
aF190
aF188
aF52
aF106
aF96
aF116
aF152
aF107
aF5
aF230
aF183
aF351
aF336
aF61
aF276
aF138
aF163
aF3
aF75
aF207
aF189
aF70
aF232
aF204
aF334
aF109
aF127
aF291
aF278
aF288
aF176
aF8
aF234
aF338
aF78
aF155
aF339
aF120
aF324
aF204
aF267
aF339
aF219
aF137
aF243
aF203
aF286
aF274
aF208
aF276
aF330
aF9
aF186
aF0
aF119
aF349
aF320
aF254
aF221
aF334
aF278
aF269
aF39
aF58
aF281
aF140
aF231
aF172
aF111
aF56
aF168
aF222
aF99
aF237
aF270
aF111
aF111
aF43
aF9
aF213
aF42
aF50
aF9
aF24
aF94
aF103
aF91
aF211
aF144
aF247
aF39
aF175
aF121
aF266
aF176
aF176
aF314
aF257
aF239
aF316
aF106
aF267
aF149
aF306
aF334
aF243
aF132
aF252
aF219
aF146
aF184
aF62
aF335
aF281
aF63
aF75
aF267
aF38
aF146
aF13
aF70
aF339
aF9
aF354
aF172
aF163
aF225
aF178
aF187
aF160
aF45
aF83
aF203
aF303
aF25
aF324
aF113
aF281
aF179
aF232
aF0
aF256
aF73
aF192
aF289
aF127
aF206
aF170
aF331
aF199
aF32
aF72
aF163
aF154
aF10
aF208
aF92
aF119
aF197
aF193
aF267
aF336
aF9
aF203
aF286
aF105
aF157
aF206
aF105
aF126
aF5
aF283
aF231
aF224
aF318
aF234
aF126
aF352
aF271
aF156
aF257
aF290
aF290
aF95
aF235
aF115
aF134
aF121
aF114
aF100
aF103
aF26
aF175
aF178
aF62
aF22
aF34
aF122
aF56
aF268
aF227
aF338
aF42
aF158
aF316
aF351
aF188
aF194
aF186
aF350
aF69
aF289
aF63
aF170
aF151
aF96
aF290
aF246
aF221
aF18
aF240
aF212
aF301
aF335
aF170
aF49
aF270
aF290
aF22
aF291
aF16
aF222
aF296
aF227
aF296
aF143
aF311
aF218
aF338
aF231
aF336
aF96
aF302
aF302
aF42
aF12
aF317
aF275
aF170
aF356
aF206
aF175
aF299
aF166
aF353
aF176
aF111
aF344
aF87
aF288
aF322
aF111
aF231
aF281
aF110
aF140
aF109
aF176
aF345
aF246
aF121
aF32
aF201
aF283
aF132
aF50
aF116
aF87
aF86
aF177
aF188
aF39
aF163
aF296
aF50
aF132
aF316
aF87
aF131
aF303
aF76
aF320
aF239
aF176
aF64
aF174
aF87
aF62
aF12
aF33
aF73
aF87
aF253
aF40
aF344
aF332
aF204
aF253
aF103
aF50
aF148
aF37
aF273
aF242
aF352
aF82
aF31
aF278
aF39
aF260
aF177
aF279
aF195
aF91
aF134
aF38
aF45
aF126
aF185
aF176
aF353
aF159
aF12
aF66
aF292
aF171
aF94
aF119
aF146
aF338
aF106
aF278
aF216
aF176
aF251
aF38
aF338
aF50
aF111
aF149
aF146
aF36
aF36
aF342
aF286
aF151
aF122
aF73
aF296
aF299
aF25
aF293
aF301
aF122
aF316
aF220
aF149
aF342
aF192
aF176
aF237
aF309
aF20
aF332
aF188
aF338
aF188
aF233
aF216
aF10
aF99
aF28
aF226
aF194
aF332
aF353
aF25
aF316
aF51
aF140
aF22
aF339
aF337
aF25
aF13
aF170
aF71
aF221
aF12
aF278
aF178
aF122
aF116
aF142
aF306
aF189
aF162
aF163
aF125
aF237
aF73
aF69
aF253
aF177
aF176
aF151
aF246
aF281
aF109
aF154
aF66
aF96
aF226
aF268
aF56
aF239
aF323
aF12
aF196
aF71
aF212
aF107
aF273
aF13
aF213
aF268
aF272
aF292
aF190
aF271
aF145
aF252
aF288
aF355
aF62
aF32
aF29
aF197
aF91
aF217
aF20
aF316
aF313
aF122
aF114
aF323
aF211
aF81
aF290
aF146
aF270
aF288
aF185
aF338
aF194
aF266
aF198
aF207
aF124
aF39
aF67
aF144
aF289
aF185
aF330
aF292
aF34
aF9
aF78
aF224
aF334
aF339
aF122
aF325
aF56
aF338
aF338
aF143
aF190
aF47
aF175
aF171
aF17
aF27
aF172
aF83
aF246
aF42
aF253
aF99
aF223
aF308
aF346
aF123
aF34
aF67
aF239
aF314
aF42
aF6
aF351
aF302
aF128
aF299
aF102
aF224
aF12
aF338
aF316
aF218
aF222
aF189
aF54
aF249
aF143
aF50
aF204
aF232
aF355
aF109
aF31
aF98
aF54
aF196
aF143
aF283
aF42
aF233
aF357
aF324
aF272
aF176
aF145
aF48
aF200
aF229
aF94
aF352
aF9
aF351
aF76
aF177
aF196
aF290
aF204
aF56
aF3
aF44
aF122
aF73
aF313
aF334
aF268
aF71
aF197
aF61
aF341
aF5
aF20
aF265
aF352
aF43
aF239
aF268
aF238
aF260
aF65
aF71
aF322
aF237
aF146
aF357
aF212
aF238
aF153
aF284
aF332
aF196
aF105
aF243
aF246
aF95
aF351
aF186
aF71
aF91
aF4
aF99
aF18
aF344
aF136
aF338
aF316
aF339
aF79
aF309
aF70
aF311
aF258
aF73
aF189
aF313
aF75
aF35
aF61
aF223
aF269
aF247
aF292
aF343
aF113
aF260
aF308
aF238
aF191
aF269
aF351
aF122
aF334
aF243
aF223
aF333
aF286
aF70
aF252
aF87
aF317
aF270
aF95
aF187
aF162
aF121
aF233
aF215
aF61
aF176
aF158
aF199
aF276
aF69
aF60
aF12
aF118
aF173
aF230
aF166
aF86
aF267
aF188
aF208
aF17
aF231
aF280
aF122
aF184
aF85
aF176
aF190
aF194
aF219
aF61
aF71
aF303
aF354
aF352
aF148
aF138
aF87
aF136
aF342
aF85
aF278
aF260
aF204
aF25
aF91
aF202
aF55
aF288
aF208
aF105
aF217
aF54
aF67
aF178
aF286
aF289
aF109
aF257
aF98
aF336
aF32
aF343
aF187
aF86
aF77
aF40
aF36
aF340
aF181
aF87
aF188
aF343
aF125
aF337
aF246
aF334
aF122
aF274
aF317
aF157
aF91
aF2
aF83
aF277
aF353
aF169
aF163
aF314
aF188
aF114
aF236
aF213
aF303
aF0
aF96
aF181
aF138
aF142
aF184
aF36
aF194
aF65
aF70
aF289
aF188
aF145
aF317
aF147
aF246
aF71
aF187
aF342
aF339
aF131
aF122
aF351
aF207
aF225
aF146
aF24
aF318
aF154
aF187
aF69
aF6
aF3
aF2
aF318
aF265
aF333
aF221
aF52
aF334
aF342
aF171
aF286
aF316
aF50
aF252
aF297
aF172
aF350
aF10
aF247
aF10
aF213
aF248
aF157
aF23
aF179
aF108
aF103
aF167
aF9
aF287
aF223
aF155
aF93
aF154
aF121
aF141
aF345
aF83
aF155
aF187
aF154
aF289
aF67
aF137
aF171
aF61
aF19
aF303
aF185
aF157
aF69
aF335
aF87
aF279
aF213
aF102
aF118
aF83
aF301
aF213
aF185
aF94
aF330
aF133
aF15
aF83
aF170
aF210
aF173
aF268
aF70
aF194
aF150
aF177
aF147
aF131
aF194
aF356
aF247
aF216
aF94
aF66
aF40
aF85
aF198
aF150
aF8
aF8
aF180
aF147
aF339
aF338
aF50
aF111
aF181
aF289
aF276
aF213
aF349
aF334
aF12
aF234
aF60
aF75
aF121
aF83
aF69
aF338
aF335
aF172
aF136
aF338
aF356
aF73
aF289
aF185
aF239
aF3
aF186
aF108
aF259
aF315
aF355
aF74
aF154
aF40
aF170
aF241
aF272
aF278
aF20
aF171
aF271
aF122
aF296
aF169
aF163
aF44
aF314
aF111
aF29
aF297
aF24
aF267
aF335
aF177
aF327
aF37
aF294
aF177
aF343
aF163
aF243
aF148
aF9
aF203
aF253
aF349
aF103
aF72
aF257
aF119
aF150
aF325
aF265
aF202
aF278
aF266
aF357
aF148
aF23
aF12
aF316
aF187
aF298
aF183
aF343
aF303
aF332
aF70
aF299
aF131
aF144
aF122
aF334
aF294
aF146
aF203
aF157
aF273
aF143
aF237
aF67
aF328
aF100
aF72
aF218
aF332
aF124
aF278
aF112
aF69
aF304
aF63
aF333
aF71
aF105
aF121
aF45
aF184
aF178
aF43
aF125
aF102
aF63
aF251
aF292
aF138
aF198
aF4
aF87
aF135
aF225
aF270
aF69
aF188
aF27
aF168
aF146
aF269
aF63
aF114
aF118
aF327
aF165
aF114
aF132
aF192
aF161
aF95
aF230
aF246
aF308
aF166
aF196
aF172
aF117
aF155
aF12
aF240
aF292
aF241
aF107
aF320
aF73
aF194
aF334
aF11
aF330
aF28
aF253
aF308
aF338
aF190
aF275
aF279
aF159
aF200
aF239
aF121
aF67
aF332
aF194
aF184
aF147
aF126
aF32
aF14
aF353
aF194
aF9
aF228
aF98
aF166
aF83
aF142
aF77
aF215
aF357
aF179
aF151
aF253
aF338
aF175
aF173
aF241
aF91
aF54
aF125
aF157
aF256
aF168
aF349
aF272
aF169
aF134
aF85
aF356
aF143
aF260
aF6
aF334
aF177
aF320
aF278
aF69
aF184
aF37
aF55
aF83
aF323
aF122
aF61
aF228
aF29
aF239
aF260
aF232
aF254
aF89
aF176
aF142
aF26
aF334
aF61
aF272
aF175
aF234
aF20
aF183
aF119
aF325
aF215
aF173
aF77
aF335
aF327
aF268
aF43
aF19
aF50
aF313
aF272
aF92
aF176
aF127
aF242
aF123
aF70
aF92
aF178
aF10
aF204
aF122
aF251
aF98
aF323
aF146
aF7
aF209
aF126
aF177
aF202
aF285
aF232
aF176
aF278
aF111
aF47
aF150
aF349
aF172
aF346
aF128
aF176
aF190
aF342
aF353
aF115
aF62
aF31
aF285
aF42
aF144
aF286
aF18
aF329
aF249
aF67
aF258
aF231
aF86
aF39
aF146
aF66
aF302
aF50
aF54
aF36
aF329
aF134
aF356
aF53
aF73
aF42
aF100
aF76
aF277
aF290
aF147
aF286
aF353
aF76
aF182
aF338
aF29
aF133
aF131
aF22
aF204
aF238
aF69
aF298
aF196
aF82
aF122
aF258
aF12
aF51
aF122
aF121
aF50
aF82
aF183
aF252
aF74
aF144
aF69
aF288
aF188
aF22
aF221
aF22
aF196
aF42
aF356
aF155
aF90
aF352
aF44
aF32
aF290
aF232
aF196
aF36
aF64
aF65
aF283
aF236
aF188
aF58
aF29
aF339
aF43
aF168
aF247
aF219
aF19
aF204
aF81
aF75
aF296
aF186
aF168
aF316
aF176
aF178
aF154
aF103
aF204
aF91
aF12
aF307
aF76
aF296
aF291
aF346
aF154
aF23
aF122
aF74
aF314
aF212
aF90
aF96
aF206
aF188
aF151
aF96
aF91
aF166
aF140
aF76
aF316
aF267
aF311
aF240
aF188
aF223
aF312
aF47
aF306
aF183
aF126
aF25
aF256
aF137
aF81
aF302
aF283
aF151
aF190
aF125
aF202
aF203
aF77
aF43
aF226
aF231
aF69
aF188
aF338
aF170
aF192
aF56
aF141
aF71
aF295
aF243
aF157
aF93
aF319
aF223
aF160
aF272
aF339
aF243
aF357
aF299
aF229
aF176
aF187
aF242
aF42
aF302
aF287
aF69
aF20
aF136
aF271
aF270
aF50
aF172
aF313
aF55
aF135
aF243
aF188
aF267
aF208
aF212
aF291
aF237
aF22
aF262
aF98
aF355
aF162
aF296
aF192
aF131
aF176
aF5
aF342
aF251
aF42
aF20
aF62
aF170
aF243
aF122
aF216
aF74
aF157
aF70
aF24
aF189
aF222
aF138
aF127
aF146
aF154
aF177
aF124
aF338
aF336
aF143
aF221
aF187
aF50
aF223
aF181
aF294
aF206
aF271
aF70
aF79
aF353
aF335
aF185
aF37
aF36
aF304
aF175
aF339
aF350
aF231
aF131
aF176
aF225
aF331
aF249
aF61
aF315
aF69
aF317
aF222
aF71
aF227
aF159
aF3
aF104
aF189
aF165
aF94
aF111
aF110
aF111
aF217
aF237
aF6
aF54
aF143
aF185
aF108
aF168
aF303
aF150
aF240
aF26
aF8
aF130
aF304
aF183
aF356
aF70
aF149
aF25
aF160
aF83
aF64
aF113
aF272
aF20
aF137
aF289
aF61
aF196
aF194
aF202
aF337
aF123
aF138
aF323
aF59
aF73
aF32
aF328
aF116
aF258
aF90
aF312
aF10
aF233
aF272
aF306
aF176
aF96
aF28
aF127
aF351
aF74
aF354
aF296
aF231
aF88
aF183
aF351
aF122
aF151
aF260
aF267
aF99
aF26
aF168
aF103
aF181
aF146
aF304
aF27
aF357
aF16
aF353
aF122
aF81
aF132
aF226
aF188
aF257
aF190
aF125
aF289
aF327
aF330
aF98
aF316
aF132
aF159
aF178
aF357
aF86
aF140
aF105
aF103
aF131
aF221
aF199
aF211
aF74
aF98
aF140
aF39
aF118
aF216
aF188
aF34
aF233
aF176
aF122
aF222
aF342
aF216
aF3
aF89
aF334
aF168
aF114
aF237
aF187
aF73
aF343
aF11
aF128
aF76
aF219
aF187
aF341
aF134
aF74
aF278
aF69
aF207
aF278
aF12
aF45
aF54
aF180
aF232
aF334
aF339
aF21
aF172
aF95
aF338
aF352
aF338
aF176
aF224
aF215
aF337
aF222
aF181
aF118
aF260
aF206
aF5
aF20
aF203
aF334
aF94
aF131
aF223
aF20
aF216
aF91
aF208
aF284
aF87
aF204
aF338
aF339
aF266
aF73
aF130
aF202
aF211
aF350
aF122
aF151
aF91
aF217
aF219
aF278
aF273
aF180
aF196
aF278
aF194
aF91
aF340
aF338
aF75
aF138
aF66
aF244
aF65
aF20
aF226
aF223
aF338
aF297
aF317
aF88
aF338
aF127
aF41
aF87
aF239
aF102
aF299
aF309
aF303
aF127
aF281
aF94
aF196
aF274
aF12
aF185
aF36
aF163
aF34
aF304
aF106
aF227
aF119
aF96
aF216
aF56
aF250
aF296
aF246
aF69
aF252
aF132
aF187
aF356
aF319
aF45
aF239
aF176
aF147
aF342
aF95
aF27
aF188
aF33
aF124
aF194
aF35
aF12
aF216
aF68
aF283
aF208
aF197
aF356
aF170
aF76
aF114
aF318
aF151
aF131
aF222
aF96
aF177
aF172
aF136
aF168
aF283
aF188
aF233
aF177
aF121
aF100
aF326
aF176
aF70
aF269
aF234
aF35
aF20
aF151
aF335
aF186
aF187
aF132
aF144
aF185
aF206
aF31
aF24
aF136
aF258
aF313
aF288
aF99
aF161
aF267
aF0
aF31
aF121
aF357
aF67
aF79
aF284
aF213
aF233
aF147
aF330
aF197
aF322
aF114
aF83
aF147
aF282
aF178
aF99
aF210
aF87
aF103
aF168
aF53
aF144
aF65
aF256
aF223
aF119
aF208
aF292
aF76
aF300
aF147
aF20
aF278
aF298
aF38
aF299
aF253
aF130
aF239
aF20
aF70
aF343
aF93
aF40
aF122
aF199
aF258
aF194
aF335
aF95
aF12
aF199
aF342
aF95
aF103
aF236
aF285
aF237
aF349
aF211
aF131
aF37
aF118
aF37
aF84
aF132
aF132
aF213
aF188
aF308
aF234
aF151
aF315
aF338
aF141
aF330
aF79
aF283
aF100
aF196
aF158
aF153
aF143
aF298
aF157
aF258
aF335
aF89
aF218
aF19
aF55
aF20
aF219
aF12
aF159
aF236
aF170
aF47
aF190
aF297
aF347
aF158
aF223
aF196
aF47
aF351
aF34
aF62
aF275
aF283
aF258
aF333
aF175
aF334
aF338
aF245
aF62
aF286
aF188
aF12
aF234
aF209
aF313
aF215
aF39
aF108
aF102
aF141
aF188
aF55
aF232
aF236
aF163
aF279
aF295
aF19
aF160
aF207
aF40
aF76
aF106
aF187
aF236
aF341
aF121
aF144
aF245
aF202
aF256
aF24
aF325
aF153
aF344
aF39
aF116
aF303
aF79
aF189
aF265
aF296
aF155
aF151
aF210
aF246
aF9
aF146
aF150
aF154
aF327
aF296
aF121
aF2
aF147
aF94
aF83
aF276
aF28
aF334
aF188
aF131
aF122
aF292
aF212
aF280
aF120
aF267
aF122
aF18
aF178
aF270
aF277
aF50
aF114
aF119
aF273
aF25
aF168
aF273
aF34
aF176
aF282
aF122
aF159
aF87
aF357
aF190
aF231
aF38
aF63
aF10
aF181
aF183
aF269
aF170
aF61
aF175
aF197
aF115
aF146
aF338
aF233
aF173
aF289
aF180
aF212
aF151
aF99
aF52
aF40
aF349
aF37
aF91
aF187
aF204
aF347
aF31
aF170
aF157
aF292
aF76
aF77
aF283
aF54
aF196
aF194
aF176
aF254
aF217
aF157
aF56
aF189
aF93
aF328
aF118
aF190
aF138
aF87
aF179
aF61
aF34
aF203
aF84
aF240
aF269
aF102
aF188
aF212
aF219
aF139
aF57
aF337
aF143
aF98
aF122
aF339
aF316
aF169
aF219
aF132
aF237
aF125
aF30
aF157
aF29
aF256
aF159
aF147
aF177
aF57
aF253
aF42
aF87
aF76
aF199
aF357
aF243
aF204
aF136
aF128
aF267
aF253
aF197
aF222
aF194
aF188
aF57
aF342
aF94
aF102
aF50
aF159
aF85
aF86
aF105
aF297
aF252
aF229
aF87
aF219
aF279
aF283
aF38
aF56
aF53
aF72
aF187
aF235
aF76
aF75
aF61
aF338
aF163
aF193
aF121
aF356
aF25
aF237
aF207
aF202
aF147
aF68
aF253
aF192
aF203
aF259
aF206
aF162
aF321
aF281
aF51
aF76
aF55
aF172
aF91
aF288
aF67
aF356
aF176
aF96
aF96
aF42
aF82
aF0
aF256
aF195
aF130
aF334
aF89
aF18
aF196
aF173
aF210
aF234
aF172
aF223
aF268
aF319
aF246
aF93
aF15
aF256
aF225
aF146
aF19
aF196
aF278
aF16
aF19
aF103
aF330
aF187
aF164
aF130
aF35
aF146
aF140
aF122
aF168
aF312
aF194
aF58
aF4
aF264
aF102
aF196
aF69
aF204
aF301
aF301
aF62
aF338
aF21
aF200
aF356
aF10
aF219
aF213
aF232
aF197
aF36
aF20
aF127
aF172
aF176
aF351
aF23
aF197
aF61
aF170
aF283
aF188
aF128
aF281
aF147
aF61
aF62
aF54
aF192
aF87
aF83
aF109
aF74
aF185
aF227
aF213
aF283
aF226
aF212
aF234
aF162
aF234
aF302
aF8
aF174
aF27
aF102
aF102
aF356
aF25
aF125
aF253
aF176
aF68
aF87
aF189
aF256
aF162
aF348
aF293
aF164
aF331
aF71
aI6170
I6821
tp7
a.