(dp1
I1
I00
sI2
I00
sI3
I01
sI4
I01
sI5
I00
sI41010
I01
sI41011
I01
sI41014
I01
sI41015
I00
sI41018
I01
sI41019
I00
sI41021
I01
sI41022
I00
sI41023
I01
sI41024
I00
sI41027
I01
sI41028
I00
sI27318
I01
sI41034
I01
sI49227
I01
sI8268
I01
sI57436
I00
sI57448
I01
sI24690
I00
sI24691
I01
sI24694
I00
sI24695
I01
sI24696
I01
sI57465
I01
sI24700
I01
sI24701
I01
sI57479
I00
sI57480
I00
sI34156
I01
sI65674
I01
sI41105
I01
sI24723
I01
sI16536
I00
sI66927
I00
sI65700
I01
sI39623
I00
sI16562
I00
sI10956
I01
sI41164
I01
sI9828
I00
sI41206
I00
sI41238
I01
sI49470
I01
sI41284
I00
sI29744
I00
sI33109
I00
sI41318
I01
sI33132
I01
sI65924
I01
sI16782
I01
sI24975
I01
sI33179
I00
sI41374
I01
sI57781
I01
sI33206
I00
sI33209
I01
sI33210
I01
sI65983
I01
sI65984
I00
sI65987
I00
sI65988
I00
sI65989
I00
sI65990
I01
sI49607
I01
sI49608
I00
sI65993
I01
sI65994
I01
sI49611
I01
sI49612
I01
sI49615
I01
sI49616
I01
sI49617
I01
sI49618
I01
sI49619
I01
sI49620
I01
sI66005
I00
sI66006
I00
sI49624
I01
sI49625
I01
sI49627
I00
sI49628
I00
sI41449
I01
sI41477
I01
sI41478
I00
sI41480
I01
sI41481
I01
sI41484
I00
sI41485
I00
sI41487
I01
sI41488
I01
sI41489
I01
sI41490
I01
sI41493
I01
sI41494
I00
sI49687
I01
sI41497
I01
sI41498
I00
sI55120
I00
sI49705
I01
sI66160
I01
sI57974
I01
sI57975
I01
sI57978
I01
sI57979
I01
sI34240
I00
sI17865
I01
sI17866
I01
sI66243
I00
sI24697
I01
sI8922
I00
sI49899
I00
sI8942
I00
sI8943
I00
sI8945
I00
sI8946
I00
sI62220
I01
sI41736
I01
sI41748
I01
sI42463
I01
sI66405
I00
sI61586
I01
sI58228
I01
sI46571
I00
sI66446
I01
sI69785
I00
sI33688
I01
sI33691
I01
sI925
I00
sI33695
I01
sI33696
I00
sI33697
I01
sI33698
I01
sI33699
I01
sI33701
I01
sI33702
I01
sI33703
I01
sI33704
I01
sI66473
I01
sI33706
I01
sI66475
I01
sI66476
I00
sI66478
I00
sI33712
I01
sI66482
I00
sI66484
I01
sI66485
I01
sI66488
I00
sI17337
I00
sI66490
I00
sI66491
I01
sI66492
I01
sI66493
I01
sI66494
I01
sI33727
I01
sI66497
I00
sI66498
I01
sI66499
I01
sI66500
I01
sI33740
I01
sI41942
I01
sI41943
I01
sI41945
I01
sI41946
I01
sI58331
I00
sI1006
I01
sI1007
I01
sI1008
(lp2
cnumpy.core.multiarray
_reconstruct
p3
(cnumpy
ndarray
p4
(I0
tS'b'
tRp5
(I1
(I164
I2
tcnumpy
dtype
p6
(S'i4'
I0
I1
tRp7
(I3
S'<'
NNNI-1
I-1
I0
tbI00
S'\x01\x00\x00\x00#\x00\x00\x00\x02\x00\x00\x00"\x00\x00\x00\x03\x00\x00\x00"\x00\x00\x00\x04\x00\x00\x00"\x00\x00\x00\x05\x00\x00\x00!\x00\x00\x00\x06\x00\x00\x00!\x00\x00\x00\x07\x00\x00\x00 \x00\x00\x00\x08\x00\x00\x00 \x00\x00\x00\t\x00\x00\x00 \x00\x00\x00\n\x00\x00\x00\x1f\x00\x00\x00\x0b\x00\x00\x00\x1f\x00\x00\x00\x0c\x00\x00\x00\x1e\x00\x00\x00\r\x00\x00\x00\x1e\x00\x00\x00\x0e\x00\x00\x00\x1d\x00\x00\x00\x0f\x00\x00\x00\x1d\x00\x00\x00\x10\x00\x00\x00\x1c\x00\x00\x00\x11\x00\x00\x00\x1b\x00\x00\x00\x12\x00\x00\x00\x1b\x00\x00\x00\x13\x00\x00\x00\x1a\x00\x00\x00\x14\x00\x00\x00\x1a\x00\x00\x00\x15\x00\x00\x00\x19\x00\x00\x00\x16\x00\x00\x00\x19\x00\x00\x00\x17\x00\x00\x00\x18\x00\x00\x00\x18\x00\x00\x00\x18\x00\x00\x00\x19\x00\x00\x00\x17\x00\x00\x00\x1a\x00\x00\x00\x17\x00\x00\x00\x1b\x00\x00\x00\x16\x00\x00\x00\x1c\x00\x00\x00\x16\x00\x00\x00\x1d\x00\x00\x00\x15\x00\x00\x00\x1d\x00\x00\x00\x14\x00\x00\x00\x1e\x00\x00\x00\x14\x00\x00\x00\x1f\x00\x00\x00\x13\x00\x00\x00 \x00\x00\x00\x13\x00\x00\x00!\x00\x00\x00\x12\x00\x00\x00"\x00\x00\x00\x12\x00\x00\x00#\x00\x00\x00\x11\x00\x00\x00$\x00\x00\x00\x11\x00\x00\x00%\x00\x00\x00\x10\x00\x00\x00&\x00\x00\x00\x10\x00\x00\x00\'\x00\x00\x00\x0f\x00\x00\x00(\x00\x00\x00\x0f\x00\x00\x00)\x00\x00\x00\x0e\x00\x00\x00*\x00\x00\x00\r\x00\x00\x00+\x00\x00\x00\r\x00\x00\x00,\x00\x00\x00\r\x00\x00\x00-\x00\x00\x00\x0c\x00\x00\x00.\x00\x00\x00\x0b\x00\x00\x00/\x00\x00\x00\x0b\x00\x00\x000\x00\x00\x00\n\x00\x00\x001\x00\x00\x00\n\x00\x00\x002\x00\x00\x00\n\x00\x00\x003\x00\x00\x00\t\x00\x00\x004\x00\x00\x00\t\x00\x00\x005\x00\x00\x00\x08\x00\x00\x006\x00\x00\x00\x08\x00\x00\x007\x00\x00\x00\x07\x00\x00\x008\x00\x00\x00\x07\x00\x00\x009\x00\x00\x00\x07\x00\x00\x00:\x00\x00\x00\x06\x00\x00\x00;\x00\x00\x00\x06\x00\x00\x00<\x00\x00\x00\x05\x00\x00\x00=\x00\x00\x00\x04\x00\x00\x00>\x00\x00\x00\x04\x00\x00\x00?\x00\x00\x00\x03\x00\x00\x00@\x00\x00\x00\x03\x00\x00\x00A\x00\x00\x00\x03\x00\x00\x00B\x00\x00\x00\x02\x00\x00\x00C\x00\x00\x00\x02\x00\x00\x00D\x00\x00\x00\x02\x00\x00\x00E\x00\x00\x00\x01\x00\x00\x00F\x00\x00\x00\x01\x00\x00\x00G\x00\x00\x00\x01\x00\x00\x00H\x00\x00\x00\x01\x00\x00\x00I\x00\x00\x00\x01\x00\x00\x00J\x00\x00\x00\x01\x00\x00\x00K\x00\x00\x00\x01\x00\x00\x00L\x00\x00\x00\x01\x00\x00\x00M\x00\x00\x00\x01\x00\x00\x00N\x00\x00\x00\x01\x00\x00\x00O\x00\x00\x00\x01\x00\x00\x00O\x00\x00\x00\x02\x00\x00\x00O\x00\x00\x00\x03\x00\x00\x00O\x00\x00\x00\x04\x00\x00\x00O\x00\x00\x00\x05\x00\x00\x00O\x00\x00\x00\x06\x00\x00\x00O\x00\x00\x00\x07\x00\x00\x00N\x00\x00\x00\x08\x00\x00\x00M\x00\x00\x00\t\x00\x00\x00M\x00\x00\x00\n\x00\x00\x00L\x00\x00\x00\x0b\x00\x00\x00K\x00\x00\x00\x0c\x00\x00\x00J\x00\x00\x00\x0c\x00\x00\x00I\x00\x00\x00\r\x00\x00\x00H\x00\x00\x00\r\x00\x00\x00G\x00\x00\x00\x0e\x00\x00\x00F\x00\x00\x00\x0e\x00\x00\x00E\x00\x00\x00\x0f\x00\x00\x00D\x00\x00\x00\x10\x00\x00\x00C\x00\x00\x00\x10\x00\x00\x00B\x00\x00\x00\x11\x00\x00\x00A\x00\x00\x00\x11\x00\x00\x00@\x00\x00\x00\x11\x00\x00\x00?\x00\x00\x00\x12\x00\x00\x00>\x00\x00\x00\x12\x00\x00\x00=\x00\x00\x00\x13\x00\x00\x00<\x00\x00\x00\x13\x00\x00\x00;\x00\x00\x00\x14\x00\x00\x00:\x00\x00\x00\x14\x00\x00\x009\x00\x00\x00\x14\x00\x00\x008\x00\x00\x00\x15\x00\x00\x007\x00\x00\x00\x15\x00\x00\x006\x00\x00\x00\x15\x00\x00\x005\x00\x00\x00\x16\x00\x00\x004\x00\x00\x00\x16\x00\x00\x003\x00\x00\x00\x16\x00\x00\x002\x00\x00\x00\x16\x00\x00\x001\x00\x00\x00\x16\x00\x00\x000\x00\x00\x00\x16\x00\x00\x00/\x00\x00\x00\x17\x00\x00\x00.\x00\x00\x00\x17\x00\x00\x00-\x00\x00\x00\x17\x00\x00\x00,\x00\x00\x00\x18\x00\x00\x00+\x00\x00\x00\x18\x00\x00\x00*\x00\x00\x00\x18\x00\x00\x00)\x00\x00\x00\x19\x00\x00\x00(\x00\x00\x00\x19\x00\x00\x00\'\x00\x00\x00\x19\x00\x00\x00&\x00\x00\x00\x1a\x00\x00\x00%\x00\x00\x00\x1a\x00\x00\x00$\x00\x00\x00\x1a\x00\x00\x00#\x00\x00\x00\x1b\x00\x00\x00"\x00\x00\x00\x1b\x00\x00\x00!\x00\x00\x00\x1b\x00\x00\x00 \x00\x00\x00\x1b\x00\x00\x00\x1f\x00\x00\x00\x1c\x00\x00\x00\x1e\x00\x00\x00\x1c\x00\x00\x00\x1d\x00\x00\x00\x1d\x00\x00\x00\x1c\x00\x00\x00\x1d\x00\x00\x00\x1b\x00\x00\x00\x1d\x00\x00\x00\x1a\x00\x00\x00\x1e\x00\x00\x00\x19\x00\x00\x00\x1e\x00\x00\x00\x18\x00\x00\x00\x1e\x00\x00\x00\x17\x00\x00\x00\x1f\x00\x00\x00\x16\x00\x00\x00\x1f\x00\x00\x00\x15\x00\x00\x00\x1f\x00\x00\x00\x14\x00\x00\x00 \x00\x00\x00\x13\x00\x00\x00 \x00\x00\x00\x12\x00\x00\x00!\x00\x00\x00\x11\x00\x00\x00!\x00\x00\x00\x10\x00\x00\x00!\x00\x00\x00\x0f\x00\x00\x00!\x00\x00\x00\x0e\x00\x00\x00"\x00\x00\x00\r\x00\x00\x00"\x00\x00\x00\x0c\x00\x00\x00"\x00\x00\x00\x0b\x00\x00\x00#\x00\x00\x00\n\x00\x00\x00#\x00\x00\x00\t\x00\x00\x00#\x00\x00\x00\x08\x00\x00\x00#\x00\x00\x00\x07\x00\x00\x00#\x00\x00\x00\x06\x00\x00\x00#\x00\x00\x00\x05\x00\x00\x00#\x00\x00\x00\x04\x00\x00\x00#\x00\x00\x00\x03\x00\x00\x00#\x00\x00\x00\x02\x00\x00\x00#\x00\x00\x00'
tbasI25586
I01
sI1011
I01
sI41978
I00
sI9246
I01
sI58424
I00
sI66640
I01
sI54048
I01
sI50285
I01
sI66707
I01
sI42140
I00
sI17580
I00
sI11122
I01
sI66734
I01
sI33984
I00
sI50383
I00
sI25812
I00
sI9441
I01
sI9442
I01
sI9445
I01
sI9446
I01
sI9447
I01
sI9448
I01
sI9450
I01
sI9451
I01
sI9459
I01
sI66804
I00
sI9464
I01
sI66809
I01
sI19327
I00
sI54054
I01
sI42275
I01
sI66897
I01
sI66915
I01
sI66916
I00
sI66917
I01
sI66918
I01
sI66920
I01
sI66924
I01
sI34157
I01
sI66926
I01
sI34159
I01
sI34160
I00
sI34161
I01
sI34162
I01
sI34165
I01
sI34166
I00
sI34167
I01
sI34168
I01
sI34171
I01
sI34172
I01
sI34173
I01
sI34174
I01
sI34177
I00
sI34178
I01
sI20715
I00
sI34181
I00
sI34183
I00
sI34188
I00
sI34190
I00
sI34193
I00
sI34194
I00
sI34195
I00
sI34196
I00
sI34198
I00
sI34199
I00
sI34214
I00
sI17833
I00
sI17834
I00
sI17837
I00
sI17838
I00
sI17839
I00
sI17840
I00
sI34226
I00
sI17843
I00
sI17844
I00
sI11166
I00
sI17847
I00
sI17848
I00
sI17849
I00
sI17850
I00
sI17853
I00
sI17854
I00
sI17855
I00
sI17856
I01
sI17859
I01
sI17860
I01
sI17861
I01
sI17862
I01
sI57879
I00
sI42441
I01
sI42442
I01
sI42445
I01
sI42446
I00
sI42447
I01
sI42448
I01
sI42451
I00
sI42452
I01
sI42453
I00
sI42454
I00
sI26071
I01
sI42457
I00
sI42458
I00
sI42459
I00
sI42460
I00
sI34271
I00
sI42464
I00
sI34285
I01
sI34289
I01
sI59790
I01
sI20735
I01
sI69888
I01
sI58918
I01
sI34348
I00
sI42542
I01
sI58959
I00
sI58960
I00
sI58963
I00
sI58964
I01
sI58965
I01
sI58966
I01
sI58968
I00
sI58969
I01
sI58972
I01
sI58973
I00
sI18014
I01
sI34400
I00
sI42596
I00
sI58990
I01
sI35773
I01
sI42622
I01
sI34441
I01
sI42650
I00
sI9883
I00
sI34463
I00
sI64457
I00
sI34491
I01
sI42703
I00
sI42704
I00
sI34523
I01
sI46715
I00
sI18148
I01
sI59120
I00
sI45352
I00
sI34550
I01
sI53545
I01
sI34554
I01
sI34556
I01
sI53546
I01
sI11221
I01
sI34560
I00
sI34561
I01
sI34564
I01
sI34565
I00
sI34567
I01
sI67336
I01
sI61740
I01
sI27607
I00
sI61741
I01
sI27608
I01
sI34578
I00
sI34579
I00
sI61742
I00
sI34582
I01
sI34585
I00
sI34587
I00
sI34590
I00
sI34591
I00
sI34592
I01
sI34595
I01
sI34596
I00
sI34598
I01
sI34599
I00
sI34600
I01
sI34605
I01
sI34606
I01
sI27613
I00
sI34608
I01
sI34609
I01
sI69940
I01
sI18235
I00
sI61749
I00
sI37174
I01
sI67401
I01
sI67402
I01
sI18251
I00
sI67405
I01
sI67406
I00
sI18256
I00
sI61752
I00
sI18260
I00
sI61753
I00
sI53566
I00
sI59276
I01
sI34702
I00
sI51097
I01
sI51098
I00
sI51101
I00
sI51102
I00
sI42911
I01
sI42914
I01
sI42915
I01
sI42917
I01
sI34726
I01
sI42919
I01
sI42920
I01
sI42923
I01
sI42924
I00
sI42925
I00
sI42926
I00
sI42929
I00
sI42930
I00
sI63134
I00
sI42940
I00
sI42948
I01
sI27638
I00
sI34762
I01
sI34768
I00
sI34774
I01
sI18399
I01
sI34791
I01
sI34798
I01
sI27647
I00
sI34813
I00
sI34828
I00
sI34863
I00
sI51253
I00
sI26684
I01
sI26685
I01
sI26688
I01
sI26689
I01
sI26690
I01
sI26691
I01
sI26693
I01
sI26694
I01
sI2119
I01
sI26696
I01
sI26699
I01
sI26700
I01
sI26701
I01
sI26702
I01
sI67667
I01
sI20257
I01
sI26719
I01
sI26723
I01
sI34919
I01
sI27667
I01
sI67710
I01
sI46785
I00
sI43149
I00
sI34961
I01
sI34962
I01
sI34963
I01
sI34964
I01
sI34967
I01
sI34968
I00
sI34969
I00
sI34972
I00
sI34974
I00
sI34977
I00
sI30406
I00
sI34982
I00
sI34983
I00
sI34984
I00
sI34985
I00
sI34986
I00
sI46791
I00
sI34989
I00
sI34992
I00
sI30408
I00
sI34994
I00
sI34995
I01
sI34996
I00
sI34997
I01
sI10422
I00
sI35000
I00
sI35001
I01
sI35002
I00
sI35003
I00
sI35006
I00
sI35007
I00
sI35008
I01
sI35009
I00
sI10434
I00
sI10435
I00
sI35012
I00
sI10438
I01
sI10439
I00
sI35016
I00
sI30412
I00
sI35018
I01
sI35019
I01
sI35020
I01
sI43213
I00
sI22221
I00
sI52259
I00
sI46798
I00
sI26839
I01
sI35034
I00
sI34511
I00
sI30416
I00
sI35042
I00
sI48166
I00
sI30417
I00
sI46802
I01
sI26862
I01
sI63187
I01
sI53630
I00
sI35065
I01
sI43266
I00
sI22230
I00
sI46807
I01
sI35084
I00
sI35089
I00
sI27695
I01
sI67886
I00
sI35121
I01
sI40450
I01
sI35128
I01
sI35134
I00
sI63200
I01
sI35138
I00
sI2374
I01
sI18801
I01
sI18802
I01
sI43386
I01
sI51580
I01
sI51581
I01
sI51584
I01
sI51585
I00
sI51586
I01
sI51587
I01
sI43401
I01
sI43402
I01
sI43404
I01
sI43405
I01
sI43406
I01
sI43407
I01
sI35233
I00
sI18854
I00
sI35241
I01
sI35242
I01
sI10677
I00
sI35277
I00
sI63224
I01
sI53549
I01
sI55034
I01
sI18915
I00
sI27113
I01
sI50941
I01
sI34559
I01
sI27143
I01
sI35347
I00
sI35348
I00
sI35349
I01
sI35350
I00
sI35352
I00
sI35353
I01
sI27163
I01
sI35356
I00
sI35357
I00
sI43550
I01
sI35359
I00
sI35360
I01
sI27169
I01
sI27170
I00
sI27171
I00
sI27172
I01
sI27174
I01
sI27175
I00
sI27176
I01
sI27177
I00
sI27180
I01
sI27181
I00
sI59950
I01
sI59951
I00
sI59953
I00
sI59954
I00
sI59955
I01
sI59956
I01
sI59959
I01
sI59960
I01
sI51771
I01
sI68158
I01
sI33205
I01
sI10833
I01
sI61737
I01
sI2666
I01
sI43640
I01
sI68226
I00
sI19080
I00
sI60048
I01
sI27307
I00
sI10928
I01
sI10929
I00
sI10932
I01
sI10933
I00
sI10934
I01
sI10935
I00
sI10938
I01
sI10939
I00
sI10940
I01
sI10941
I01
sI10944
I01
sI10945
I01
sI10947
I01
sI10948
I01
sI10949
I01
sI10950
I00
sI10952
I00
sI10953
I01
sI2764
I01
sI10957
I00
sI10959
I01
sI10960
I01
sI10961
I01
sI10962
I01
sI10965
I00
sI10966
I00
sI10998
I01
sI60161
I00
sI43779
I01
sI11026
I01
sI51988
I01
sI34607
I00
sI11397
I00
sI27436
I01
sI68397
I01
sI68398
I00
sI68401
I01
sI68402
I01
sI60216
I01
sI63286
I01
sI11090
I00
sI43862
I01
sI19291
I00
sI19292
I00
sI19293
I00
sI19294
I00
sI27488
I00
sI19297
I00
sI19298
I01
sI11109
I01
sI52076
I01
sI52077
I01
sI52078
I00
sI52079
I00
sI52082
I00
sI52083
I00
sI43892
I01
sI43893
I01
sI43896
I01
sI43897
I01
sI43898
I01
sI43899
I00
sI11133
I00
sI43902
I01
sI43903
I00
sI43905
I01
sI43907
I01
sI27524
I01
sI43914
I00
sI43915
I01
sI43921
I00
sI43926
I01
sI27550
I01
sI35757
I00
sI35764
I00
sI19381
I00
sI27581
I00
sI35774
I01
sI60352
I00
sI35777
I01
sI35780
I01
sI35781
I00
sI35782
I01
sI35783
I00
sI35786
I01
sI35787
I01
sI35788
I01
sI35789
I01
sI59213
I01
sI35792
I01
sI35793
I01
sI35794
I01
sI35795
I01
sI35797
I00
sI27606
I01
sI35799
I01
sI35800
I00
sI27609
I00
sI35802
I01
sI27612
I00
sI35805
I00
sI27614
I01
sI27615
I00
sI27617
I00
sI27618
I00
sI27621
I01
sI27622
I00
sI27624
I01
sI27625
I00
sI27626
I00
sI27627
I01
sI35830
I01
sI27639
I01
sI27641
I01
sI27644
I00
sI60415
I01
sI27650
I00
sI44035
I01
sI60429
I00
sI35857
I01
sI11283
I00
sI60441
I01
sI60442
I00
sI60444
I01
sI60445
I00
sI60446
I01
sI60447
I01
sI60449
I00
sI60450
I01
sI60451
I01
sI60454
I01
sI60456
I00
sI60460
I01
sI60461
I01
sI60463
I00
sI60464
I00
sI60466
I00
sI60467
I01
sI60471
I00
sI60472
I01
sI60474
I01
sI60475
I00
sI60476
I01
sI60477
I00
sI35937
I01
sI40572
I00
sI35941
I01
sI27765
I01
sI533
I00
sI11393
I00
sI11394
I01
sI27781
I01
sI11398
I01
sI11399
I01
sI11400
I00
sI11403
I01
sI11404
I00
sI35984
I00
sI11429
I01
sI56519
I01
sI19638
I01
sI27863
I01
sI60633
I01
sI11488
I00
sI52459
I01
sI27884
I00
sI64722
I01
sI36078
I01
sI60663
I00
sI60671
I01
sI27911
I00
sI44311
I01
sI52524
I01
sI68913
I01
sI19773
I00
sI19774
I00
sI36159
I01
sI19784
I01
sI19785
I01
sI19787
I00
sI44364
I00
sI19789
I01
sI19792
I00
sI19793
I01
sI52562
I00
sI19795
I01
sI19798
I01
sI52567
I00
sI52568
I01
sI52569
I01
sI36186
I01
sI52572
I01
sI19805
I00
sI52574
I01
sI52575
I00
sI52577
I00
sI52578
I01
sI19825
I01
sI36211
I00
sI28020
I00
sI36214
I00
sI36216
I00
sI36217
I00
sI36219
I01
sI36220
I01
sI38805
I00
sI36224
I01
sI36225
I00
sI36226
I00
sI28035
I00
sI36228
I01
sI36230
I01
sI36232
I00
sI36235
I00
sI28046
I00
sI36239
I01
sI28048
I01
sI28049
I01
sI36243
I01
sI28052
I01
sI28053
I01
sI28054
I01
sI28055
I00
sI36248
I01
sI28057
I01
sI28058
I01
sI36251
I00
sI28061
I01
sI28062
I00
sI28064
I01
sI28065
I00
sI28073
I01
sI42910
I01
sI62025
I01
sI28091
I00
sI19905
I01
sI36294
I01
sI36305
I00
sI42918
I01
sI60910
I00
sI60911
I01
sI60913
I00
sI60914
I00
sI60916
I00
sI60917
I00
sI60919
I00
sI60920
I01
sI60921
I00
sI60922
I00
sI60924
I00
sI60925
I01
sI60926
I01
sI60927
I01
sI11781
I00
sI60937
I00
sI38829
I01
sI28181
I01
sI20003
I00
sI69158
I01
sI36392
I01
sI36408
I01
sI19489
I01
sI45665
I01
sI61002
I01
sI52817
I00
sI36470
I00
sI52875
I00
sI36493
I01
sI36496
I01
sI36499
I01
sI36505
I01
sI28325
I00
sI20138
I00
sI61105
I01
sI36532
I01
sI36581
I01
sI52974
I00
sI37501
I00
sI36592
I00
sI36593
I00
sI36594
I00
sI36596
I00
sI36597
I00
sI36598
I01
sI36599
I00
sI36601
I01
sI36602
I00
sI36603
I01
sI36604
I00
sI22223
I00
sI36611
I00
sI36612
I01
sI36617
I01
sI36619
I00
sI69389
I01
sI69390
I01
sI69393
I01
sI69394
I00
sI36628
I01
sI20245
I00
sI36632
I01
sI28442
I01
sI36638
I00
sI28449
I00
sI20258
I01
sI20259
I00
sI20260
I00
sI53029
I01
sI20263
I01
sI20264
I01
sI20265
I00
sI20266
I01
sI36651
I00
sI36652
I00
sI20269
I00
sI20270
I01
sI36655
I00
sI20272
I01
sI20273
I01
sI20274
I00
sI20275
I00
sI36660
I00
sI20278
I00
sI20279
I00
sI36665
I00
sI36666
I00
sI36667
I00
sI36668
I00
sI36671
I00
sI53056
I01
sI53057
I01
sI36674
I00
sI36675
I01
sI53060
I01
sI53061
I01
sI20294
I01
sI28488
I00
sI28489
I00
sI53066
I01
sI61259
I01
sI53068
I01
sI28493
I00
sI28494
I01
sI28496
I01
sI28497
I01
sI36690
I01
sI28500
I00
sI28501
I01
sI36698
I00
sI63192
I01
sI36709
I00
sI61293
I00
sI36718
I01
sI36726
I01
sI36731
I00
sI36736
I00
sI30411
I00
sI61329
I01
sI3999
I01
sI4000
I01
sI4003
I01
sI4004
I00
sI4005
I01
sI4006
I01
sI36775
I00
sI61352
I01
sI4009
I01
sI4010
I00
sI61355
I01
sI61358
I01
sI28592
I01
sI61361
I01
sI61362
I01
sI61363
I01
sI61364
I01
sI36789
I00
sI61366
I01
sI61367
I01
sI61370
I01
sI61371
I01
sI61372
I01
sI61373
I00
sI61376
I01
sI61377
I01
sI44363
I01
sI61380
I00
sI36805
I01
sI19788
I01
sI33687
I00
sI20440
I01
sI45027
I01
sI36837
I00
sI20458
I01
sI36844
I01
sI19794
I01
sI36847
I00
sI28656
I00
sI52563
I00
sI36866
I01
sI52566
I00
sI19799
I00
sI61452
I01
sI19800
I01
sI36890
I00
sI19802
I01
sI53278
I00
sI19804
I01
sI28719
I01
sI61489
I00
sI69686
I01
sI53314
I01
sI53317
I01
sI4167
I01
sI36938
I01
sI61543
I01
sI61552
I01
sI46786
I01
sI50605
I01
sI36988
I01
sI36989
I00
sI36991
I01
sI36992
I00
sI36993
I00
sI36994
I00
sI36997
I00
sI36998
I00
sI36999
I01
sI37000
I00
sI37003
I01
sI37004
I00
sI37005
I01
sI37006
I01
sI37009
I01
sI37010
I01
sI37011
I01
sI37012
I01
sI37015
I01
sI37017
I01
sI53417
I00
sI61610
I01
sI20662
I01
sI28856
I01
sI53434
I01
sI37053
I01
sI28895
I01
sI45284
I00
sI37099
I00
sI37102
I00
sI20720
I01
sI20724
I00
sI69881
I01
sI69882
I01
sI20731
I01
sI20732
I00
sI69885
I01
sI69886
I01
sI69887
I01
sI20736
I00
sI60800
I01
sI61703
I01
sI61707
I01
sI28945
I00
sI36227
I01
sI28951
I01
sI28952
I00
sI28953
I01
sI28954
I00
sI28956
I01
sI28957
I00
sI45347
I00
sI45348
I01
sI45351
I01
sI61736
I00
sI45353
I01
sI45354
I00
sI53548
I01
sI45357
I01
sI45358
I01
sI61743
I00
sI52616
I01
sI61746
I00
sI61747
I00
sI61748
I00
sI53557
I00
sI53558
I01
sI53560
I00
sI53561
I01
sI61754
I01
sI61755
I00
sI53564
I00
sI53565
I01
sI61758
I00
sI53567
I00
sI53570
I00
sI53571
I00
sI53572
I00
sI53573
I00
sI53575
I00
sI53576
I00
sI53578
I01
sI53590
I01
sI28047
I01
sI61790
I01
sI37222
I00
sI36241
I01
sI59452
I01
sI53610
I01
sI59453
I00
sI61810
I01
sI36244
I01
sI70014
I00
sI59456
I00
sI59457
I01
sI4490
I01
sI4491
I01
sI4494
I01
sI4495
I00
sI4496
I01
sI4497
I00
sI53650
I00
sI4501
I00
sI53666
I00
sI46796
I00
sI33521
I01
sI26695
I01
sI53679
I00
sI30792
I01
sI36254
I01
sI53687
I00
sI37315
I00
sI70109
I00
sI53751
I01
sI45562
I00
sI45566
I01
sI24199
I00
sI37398
I01
sI53803
I01
sI61996
I00
sI34911
I00
sI53831
I01
sI37449
I01
sI37451
I01
sI37458
I00
sI37460
I00
sI37463
I00
sI37465
I01
sI37467
I01
sI37468
I00
sI37469
I01
sI37470
I01
sI37473
I01
sI37474
I00
sI37475
I00
sI37476
I00
sI37479
I00
sI37480
I00
sI37481
I01
sI37482
I00
sI37485
I01
sI37486
I00
sI37487
I01
sI37488
I01
sI37492
I01
sI37493
I01
sI37494
I01
sI37496
I00
sI37497
I00
sI37500
I00
sI29309
I00
sI37502
I00
sI37503
I00
sI37506
I00
sI37507
I00
sI37520
I01
sI46804
I01
sI37527
I01
sI37547
I00
sI4780
I00
sI54045
I01
sI54047
I00
sI62145
I01
sI12995
I01
sI45859
I00
sI37594
I00
sI70363
I01
sI70364
I00
sI70367
I01
sI70368
I01
sI70370
I00
sI70371
I01
sI70372
I01
sI70373
I00
sI62183
I01
sI70376
I01
sI70377
I01
sI70378
I01
sI70379
I00
sI70382
I01
sI70386
I01
sI70388
I00
sI29481
I01
sI29434
I01
sI29435
I01
sI29438
I00
sI29439
I01
sI70400
I01
sI62209
I00
sI62210
I01
sI62211
I00
sI62212
I01
sI62215
I01
sI62219
I01
sI37644
I01
sI29453
I01
sI45843
I01
sI45844
I00
sI45847
I01
sI45848
I00
sI45849
I01
sI45850
I00
sI54044
I00
sI45853
I01
sI45854
I00
sI45855
I00
sI45856
I01
sI45858
I01
sI54051
I00
sI54052
I00
sI54053
I01
sI45862
I01
sI45863
I01
sI45864
I00
sI54057
I01
sI54058
I01
sI45869
I01
sI70447
I01
sI45872
I01
sI13105
I01
sI45894
I01
sI29523
I01
sI37724
I00
sI21343
I00
sI37743
I00
sI45937
I00
sI37760
I01
sI55541
I01
sI37772
I00
sI37773
I00
sI45972
I00
sI47258
I00
sI47259
I01
sI37812
I01
sI48628
I01
sI32245
I01
sI29643
I00
sI47266
I00
sI47267
I01
sI37848
I01
sI37849
I01
sI37850
I01
sI37851
I01
sI37854
I01
sI37855
I00
sI37856
I01
sI37857
I01
sI65019
I01
sI47270
I00
sI47271
I00
sI2217
I00
sI46075
I01
sI32257
I00
sI47276
I00
sI70668
I00
sI32258
I00
sI47277
I00
sI32259
I00
sI32262
I00
sI62503
I01
sI65031
I01
sI13356
I00
sI70704
I01
sI54333
I00
sI22712
I01
sI63186
I00
sI21597
I01
sI29797
I00
sI46186
I01
sI70778
I01
sI38016
I01
sI38022
I01
sI33645
I00
sI54429
I00
sI62626
I01
sI70825
I00
sI70826
I00
sI70837
I01
sI70838
I00
sI70839
I01
sI70840
I01
sI70843
I01
sI70844
I01
sI10442
I00
sI70846
I01
sI62656
I00
sI70849
I00
sI70850
I01
sI70851
I00
sI70852
I01
sI70854
I00
sI70855
I01
sI70856
I01
sI70857
I01
sI35021
I01
sI70868
I00
sI38103
I01
sI29914
I00
sI29915
I01
sI29918
I01
sI29919
I01
sI29920
I00
sI62689
I01
sI62690
I00
sI29924
I00
sI62693
I01
sI62694
I00
sI62695
I01
sI62696
I01
sI46313
I01
sI62698
I01
sI62699
I01
sI63191
I00
sI46319
I01
sI46320
I01
sI46321
I00
sI29938
I01
sI46323
I00
sI46324
I01
sI46326
I01
sI46327
I01
sI46328
I01
sI29945
I01
sI46331
I01
sI46332
I00
sI29949
I00
sI46334
I01
sI46335
I00
sI46336
I01
sI29953
I01
sI29954
I00
sI54537
I00
sI54538
I00
sI35031
I00
sI46348
I01
sI46349
I00
sI46352
I00
sI46353
I00
sI27185
I01
sI21788
I01
sI30940
I00
sI70955
I01
sI13612
I01
sI46396
I00
sI5459
I01
sI54617
I01
sI62815
I01
sI46434
I00
sI71027
I01
sI46454
I01
sI62849
I01
sI71051
I00
sI71062
I01
sI46488
I01
sI38312
I01
sI38313
I01
sI38315
I01
sI38316
I01
sI38317
I01
sI38318
I01
sI38321
I01
sI38322
I01
sI38323
I01
sI38324
I01
sI38327
I01
sI38328
I01
sI38329
I01
sI38330
I01
sI38333
I01
sI38334
I01
sI38335
I01
sI38336
I01
sI38338
I01
sI38339
I01
sI38340
I01
sI38341
I01
sI71110
I00
sI13768
I00
sI38346
I01
sI38348
I01
sI46541
I01
sI38353
I01
sI54742
I00
sI38359
I01
sI39467
I00
sI71140
I01
sI66471
I01
sI62964
I01
sI71170
I00
sI33707
I00
sI71173
I01
sI5652
I00
sI30236
I01
sI71197
I00
sI30264
I00
sI17332
I01
sI38459
I01
sI17333
I00
sI46667
I01
sI17336
I01
sI30306
I00
sI46697
I01
sI71277
I01
sI33726
I01
sI71287
I01
sI71288
I00
sI71291
I01
sI71292
I00
sI71293
I00
sI71294
I00
sI30335
I01
sI71297
I00
sI71298
I01
sI71299
I00
sI30340
I01
sI71303
I00
sI71304
I00
sI71305
I01
sI71306
I01
sI71307
I00
sI71308
I00
sI71309
I00
sI30366
I01
sI46757
I01
sI53067
I00
sI71335
I00
sI30379
I01
sI46770
I01
sI30387
I00
sI46772
I01
sI30391
I00
sI30393
I00
sI30394
I01
sI30395
I01
sI30396
I01
sI30399
I00
sI46784
I01
sI30401
I00
sI38594
I01
sI46787
I01
sI46789
I00
sI46790
I01
sI30407
I01
sI46792
I00
sI46795
I00
sI22220
I00
sI46797
I01
sI30414
I01
sI30415
I01
sI22224
I00
sI46801
I00
sI22226
I00
sI46803
I00
sI5844
I01
sI22229
I00
sI63190
I01
sI22231
I00
sI22232
I01
sI63193
I01
sI63197
I01
sI63198
I00
sI63199
I01
sI30432
I01
sI63202
I00
sI63203
I00
sI63204
I01
sI46822
I01
sI63207
I01
sI63209
I00
sI63211
I01
sI63214
I01
sI63215
I00
sI63217
I00
sI63218
I01
sI63219
I01
sI63220
I01
sI63223
I01
sI55032
I00
sI63225
I00
sI63226
I01
sI55035
I00
sI30461
I01
sI63233
I00
sI63235
I00
sI63236
I01
sI63247
I01
sI63250
I00
sI24195
I00
sI24196
I01
sI63261
I01
sI38692
I01
sI59697
I00
sI22314
I00
sI63275
I00
sI30518
I00
sI63798
I01
sI34569
I01
sI71504
I00
sI52573
I01
sI5975
I00
sI5976
I01
sI63324
I01
sI6473
I00
sI46947
I00
sI63332
I00
sI63804
I00
sI30570
I00
sI63339
I00
sI22380
I00
sI46963
I01
sI63352
I01
sI38779
I01
sI63356
I00
sI40597
I01
sI38784
I01
sI38785
I01
sI38787
I01
sI38788
I01
sI38790
I01
sI38799
I01
sI38803
I00
sI38804
I00
sI71573
I01
sI38808
I00
sI38809
I00
sI38810
I01
sI38811
I00
sI63389
I01
sI38814
I01
sI38815
I00
sI38817
I01
sI38818
I01
sI38819
I01
sI38820
I01
sI38823
I01
sI38824
I01
sI38826
I01
sI38827
I01
sI38828
I01
sI1010
I01
sI30639
I00
sI38832
I00
sI38833
I01
sI39241
I00
sI30648
I00
sI71612
I00
sI63421
I01
sI38846
I01
sI18206
I00
sI6477
I01
sI47061
I01
sI71643
I01
sI63456
I01
sI21499
I00
sI47091
I00
sI71674
I00
sI47105
I00
sI71698
I00
sI47128
I01
sI38937
I01
sI14369
I01
sI14370
I01
sI14372
I01
sI14373
I01
sI57010
I01
sI47153
I00
sI30782
I00
sI38984
I01
sI30793
I00
sI57015
I01
sI22622
I00
sI30842
I00
sI22652
I00
sI47233
I01
sI39047
I00
sI39049
I00
sI63628
I01
sI63629
I01
sI63630
I01
sI63631
I01
sI63634
I01
sI63635
I00
sI63636
I01
sI63637
I00
sI63639
I01
sI63640
I00
sI63642
I01
sI63643
I00
sI63644
I01
sI63645
I00
sI47262
I00
sI47263
I01
sI63648
I01
sI63649
I00
sI63650
I01
sI63651
I01
sI63654
I00
sI63655
I00
sI63656
I01
sI63657
I01
sI47274
I01
sI47275
I00
sI63660
I00
sI63661
I00
sI47280
I00
sI63667
I01
sI22711
I01
sI63672
I00
sI63673
I01
sI63676
I01
sI63677
I01
sI63678
I01
sI63679
I01
sI47313
I01
sI39130
I00
sI63708
I01
sI67962
I00
sI55531
I01
sI55532
I01
sI55535
I00
sI55536
I00
sI55537
I01
sI55538
I00
sI22773
I01
sI55542
I01
sI26400
I00
sI47364
I01
sI39175
I01
sI39177
I01
sI39183
I01
sI39193
I01
sI39201
I01
sI47394
I01
sI39203
I01
sI39204
I01
sI39207
I01
sI39211
I00
sI39212
I00
sI63790
I01
sI39216
I00
sI39218
I00
sI39220
I00
sI39222
I00
sI39226
I00
sI39227
I00
sI39228
I01
sI39231
I01
sI39233
I01
sI39234
I00
sI6467
I00
sI6468
I01
sI6469
I00
sI6470
I01
sI39239
I00
sI6472
I01
sI35212
I01
sI39242
I00
sI39245
I00
sI6478
I00
sI6479
I01
sI6480
I00
sI36223
I01
sI22869
I01
sI47455
I01
sI63843
I00
sI29950
I01
sI39286
I00
sI29951
I00
sI36591
I00
sI39355
I01
sI63953
I01
sI6624
I00
sI47601
I01
sI63996
I01
sI39423
I00
sI14873
I00
sI14874
I01
sI14877
I00
sI14878
I00
sI14879
I00
sI14880
I00
sI14883
I00
sI14884
I00
sI14885
I00
sI31270
I00
sI31271
I00
sI14888
I00
sI14889
I00
sI31274
I00
sI31275
I00
sI31276
I00
sI39469
I00
sI31280
I00
sI64049
I01
sI6706
I00
sI40595
I00
sI39481
I00
sI43445
I01
sI36621
I00
sI36625
I00
sI64110
I01
sI64111
I01
sI55921
I01
sI64114
I01
sI64115
I01
sI64116
I00
sI64117
I01
sI47734
I01
sI47735
I01
sI47736
I00
sI47737
I01
sI64122
I00
sI47739
I00
sI47740
I01
sI47741
I01
sI47742
I01
sI47743
I01
sI47745
I01
sI47748
I00
sI47749
I01
sI47753
I00
sI47756
I00
sI47758
I00
sI47759
I01
sI31376
I00
sI39574
I01
sI47770
I00
sI36634
I01
sI23200
I01
sI23201
I00
sI23204
I00
sI23205
I00
sI23206
I01
sI23207
I01
sI23209
I01
sI39235
I00
sI23211
I01
sI23212
I01
sI23214
I01
sI23215
I01
sI39602
I00
sI39603
I01
sI39606
I00
sI39607
I01
sI39608
I00
sI39609
I00
sI31418
I00
sI39611
I00
sI39612
I00
sI39615
I00
sI39616
I00
sI39617
I00
sI39618
I00
sI39621
I00
sI39622
I00
sI36641
I01
sI39624
I00
sI39627
I00
sI39628
I01
sI36642
I00
sI36643
I01
sI36644
I01
sI36645
I00
sI36647
I00
sI15086
I00
sI36648
I00
sI23283
I01
sI61225
I00
sI64267
I01
sI36654
I01
sI36656
I01
sI31525
I00
sI36658
I00
sI23345
I00
sI36659
I01
sI15162
I00
sI39240
I00
sI39746
I00
sI36662
I00
sI39751
I00
sI47949
I00
sI56154
I00
sI47975
I00
sI39790
I01
sI36672
I00
sI64389
I00
sI53059
I01
sI39246
I00
sI48028
I00
sI53062
I01
sI39847
I01
sI31662
I01
sI53065
I01
sI15293
I01
sI39871
I00
sI28491
I00
sI28492
I00
sI46337
I01
sI56275
I00
sI15347
I01
sI15348
I00
sI48141
I01
sI31762
I01
sI31763
I01
sI33966
I01
sI31766
I01
sI31767
I01
sI31768
I00
sI31769
I01
sI48158
I01
sI48159
I01
sI48161
I00
sI48162
I00
sI36247
I01
sI48165
I01
sI64550
I01
sI48168
I01
sI48169
I00
sI48170
I01
sI48171
I01
sI48174
I00
sI48175
I00
sI48194
I00
sI32702
I01
sI23155
I01
sI64603
I00
sI64604
I01
sI64605
I01
sI64606
I01
sI64609
I00
sI40035
I00
sI64613
I00
sI64615
I01
sI64616
I01
sI64618
I01
sI64619
I01
sI64620
I01
sI64621
I01
sI70845
I01
sI40062
I00
sI29889
I00
sI46728
I01
sI40081
I01
sI40082
I00
sI40084
I01
sI40085
I01
sI40087
I01
sI40088
I01
sI40091
I01
sI40092
I01
sI40093
I00
sI40094
I00
sI40097
I00
sI40098
I01
sI40099
I01
sI40100
I00
sI56496
I00
sI64693
I01
sI40121
I00
sI27167
I00
sI64704
I01
sI56513
I00
sI56514
I01
sI56517
I01
sI56518
I01
sI64711
I01
sI56520
I01
sI48329
I00
sI56523
I01
sI56524
I01
sI56525
I01
sI56526
I01
sI56529
I00
sI56530
I00
sI36253
I00
sI48353
I01
sI14886
I00
sI23789
I00
sI31993
I01
sI48387
I01
sI31277
I00
sI27182
I01
sI22225
I00
sI27183
I00
sI48415
I01
sI40229
I01
sI31281
I00
sI27186
I00
sI64816
I00
sI40243
I01
sI71300
I00
sI18253
I00
sI29921
I01
sI23891
I00
sI29925
I01
sI29926
I01
sI36753
I00
sI29927
I01
sI64882
I01
sI26619
I01
sI48528
I00
sI32154
I00
sI5361
I00
sI63811
I01
sI29939
I01
sI29942
I01
sI48584
I00
sI29943
I01
sI29944
I01
sI61349
I01
sI15844
I01
sI15845
I00
sI29948
I01
sI56811
I01
sI32243
I01
sI32244
I01
sI48629
I01
sI32246
I01
sI48632
I00
sI48633
I01
sI56827
I00
sI65020
I00
sI65021
I00
sI65022
I01
sI65024
I00
sI65025
I00
sI65026
I00
sI65027
I01
sI65030
I01
sI32263
I00
sI32264
I00
sI32265
I01
sI32267
I00
sI32268
I01
sI32270
I00
sI32271
I01
sI32272
I01
sI32273
I01
sI32277
I00
sI65061
I01
sI32349
I01
sI36795
I00
sI40562
I01
sI40563
I00
sI40564
I00
sI40565
I00
sI40568
I00
sI40569
I01
sI40570
I01
sI40571
I01
sI63818
I00
sI40573
I01
sI40577
I01
sI40578
I00
sI40579
I00
sI40580
I01
sI7813
I01
sI40582
I00
sI40583
I00
sI24200
I01
sI40586
I00
sI40587
I00
sI40589
I01
sI40590
I01
sI40593
I01
sI40594
I01
sI61379
I01
sI40596
I00
sI56981
I01
sI40598
I01
sI40602
I01
sI40603
I00
sI56995
I01
sI57005
I00
sI57006
I01
sI57009
I00
sI40626
I01
sI57011
I01
sI57012
I01
sI48823
I00
sI57016
I01
sI57017
I00
sI57018
I00
sI57021
I00
sI57022
I00
sI57023
I00
sI57024
I00
sI57026
I00
sI57027
I00
sI57028
I00
sI57029
I01
sI32716
I01
sI64119
I00
sI32475
I00
sI32722
I00
sI57071
I00
sI40694
I00
sI16129
I00
sI65295
I01
sI53208
I00
sI40724
I00
sI60823
I01
sI63229
I01
sI47730
I01
sI65354
I01
sI47731
I00
sI46808
I01
sI49019
I00
sI32636
I01
sI8072
I00
sI40861
I00
sI32672
I00
sI40868
I00
sI32683
I01
sI24495
I00
sI36851
I00
sI40884
I01
sI65470
I01
sI40908
I01
sI32717
I00
sI32718
I01
sI32719
I01
sI65488
I00
sI65490
I00
sI32723
I01
sI49108
I00
sI49111
I00
sI49112
I01
sI49115
I00
sI49116
I01
sI57319
I00
sI57321
I00
sI40943
I01
sI40944
I01
sI23210
I01
s.