(dp1
I71296
I00
sI71297
I00
sI71298
I00
sI71300
I00
sI71301
I00
sI71302
I01
sI71303
I00
sI71304
I00
sI71305
I01
sI71306
I01
sI71307
I01
sI71308
I01
sI71309
I01
sI71456
I00
sI71457
I00
sI71458
I01
sI71459
I00
sI71716
I01
sI71717
I00
sI71281
I01
sI71468
I01
sI71469
I00
sI71470
I01
sI71471
I00
sI71679
I00
sI70837
I01
sI71606
I01
sI71607
I00
sI71608
I01
sI71609
I00
sI71614
I01
sI71615
I00
sI71616
I01
sI71617
I00
sI70853
I00
sI71676
I01
sI70840
I01
sI71668
I01
sI71273
I01
sI71274
I01
sI71405
I00
sI71406
I00
sI71280
I01
sI71537
I01
sI71538
I00
sI71539
I01
sI71540
I00
sI71669
I00
sI71670
I01
sI71671
I00
sI71289
I00
sI71290
I01
sI71291
I00
sI71292
I00
sI71677
I00
sI71678
I01
sI71295
I00
s.